ARM GAS  E:\msys32\tmp\ccxTZSrk.s 			page 1


   1              		.cpu cortex-m4
   2              		.eabi_attribute 27, 1
   3              		.eabi_attribute 28, 1
   4              		.eabi_attribute 20, 1
   5              		.eabi_attribute 21, 1
   6              		.eabi_attribute 23, 3
   7              		.eabi_attribute 24, 1
   8              		.eabi_attribute 25, 1
   9              		.eabi_attribute 26, 1
  10              		.eabi_attribute 30, 1
  11              		.eabi_attribute 34, 1
  12              		.eabi_attribute 18, 4
  13              		.file	"systick.c"
  14              		.text
  15              	.Ltext0:
  16              		.cfi_sections	.debug_frame
  17              		.section	.text.systick_init,"ax",%progbits
  18              		.align	1
  19              		.global	systick_init
  20              		.syntax unified
  21              		.thumb
  22              		.thumb_func
  23              		.fpu fpv4-sp-d16
  25              	systick_init:
  26              	.LFB0:
  27              		.file 1 "E:/Users/VuHaiLong/Desktop/mbed/arm_new/mylib/mSrc/systick.c"
   1:E:/Users/VuHaiLong/Desktop/mbed/arm_new/mylib/mSrc\systick.c **** #include "all_lib.h"
   2:E:/Users/VuHaiLong/Desktop/mbed/arm_new/mylib/mSrc\systick.c **** 
   3:E:/Users/VuHaiLong/Desktop/mbed/arm_new/mylib/mSrc\systick.c **** void systick_init(){
  28              		.loc 1 3 0
  29              		.cfi_startproc
  30              		@ args = 0, pretend = 0, frame = 0
  31              		@ frame_needed = 0, uses_anonymous_args = 0
  32              		@ link register save eliminated.
   4:E:/Users/VuHaiLong/Desktop/mbed/arm_new/mylib/mSrc\systick.c **** 	unsigned int temp_reg;
   5:E:/Users/VuHaiLong/Desktop/mbed/arm_new/mylib/mSrc\systick.c **** 	
   6:E:/Users/VuHaiLong/Desktop/mbed/arm_new/mylib/mSrc\systick.c **** 	// disable systick
   7:E:/Users/VuHaiLong/Desktop/mbed/arm_new/mylib/mSrc\systick.c **** 	temp_reg = read_reg(mSYST_CSR , ~(1<<0));
  33              		.loc 1 7 0
  34 0000 054A     		ldr	r2, .L2
  35 0002 1368     		ldr	r3, [r2]
  36              	.LVL0:
   8:E:/Users/VuHaiLong/Desktop/mbed/arm_new/mylib/mSrc\systick.c **** 	write_reg(mSYST_CSR , temp_reg);
   9:E:/Users/VuHaiLong/Desktop/mbed/arm_new/mylib/mSrc\systick.c **** 	
  10:E:/Users/VuHaiLong/Desktop/mbed/arm_new/mylib/mSrc\systick.c **** 	// lua chon source clock  clock processor
  11:E:/Users/VuHaiLong/Desktop/mbed/arm_new/mylib/mSrc\systick.c **** 	temp_reg = read_reg(mSYST_CSR , ~(1<<2));
  37              		.loc 1 11 0
  38 0004 23F00503 		bic	r3, r3, #5
  39              	.LVL1:
  12:E:/Users/VuHaiLong/Desktop/mbed/arm_new/mylib/mSrc\systick.c **** 	temp_reg |= (0x01u << 2 );
  40              		.loc 1 12 0
  41 0008 43F00403 		orr	r3, r3, #4
  42              	.LVL2:
  13:E:/Users/VuHaiLong/Desktop/mbed/arm_new/mylib/mSrc\systick.c **** 	write_reg(mSYST_CSR , temp_reg);
  43              		.loc 1 13 0
  44 000c 1360     		str	r3, [r2]
  14:E:/Users/VuHaiLong/Desktop/mbed/arm_new/mylib/mSrc\systick.c **** 	
ARM GAS  E:\msys32\tmp\ccxTZSrk.s 			page 2


  15:E:/Users/VuHaiLong/Desktop/mbed/arm_new/mylib/mSrc\systick.c **** 	// reset value in cureent value register
  16:E:/Users/VuHaiLong/Desktop/mbed/arm_new/mylib/mSrc\systick.c **** 	write_reg(mSYST_CVR , 0u);
  45              		.loc 1 16 0
  46 000e 034B     		ldr	r3, .L2+4
  47              	.LVL3:
  48 0010 0022     		movs	r2, #0
  49              	.LVL4:
  50 0012 1A60     		str	r2, [r3]
  17:E:/Users/VuHaiLong/Desktop/mbed/arm_new/mylib/mSrc\systick.c **** }
  51              		.loc 1 17 0
  52 0014 7047     		bx	lr
  53              	.L3:
  54 0016 00BF     		.align	2
  55              	.L2:
  56 0018 10E000E0 		.word	-536813552
  57 001c 18E000E0 		.word	-536813544
  58              		.cfi_endproc
  59              	.LFE0:
  61              		.section	.text.systick_start,"ax",%progbits
  62              		.align	1
  63              		.global	systick_start
  64              		.syntax unified
  65              		.thumb
  66              		.thumb_func
  67              		.fpu fpv4-sp-d16
  69              	systick_start:
  70              	.LFB1:
  18:E:/Users/VuHaiLong/Desktop/mbed/arm_new/mylib/mSrc\systick.c **** void systick_start(unsigned int value){
  71              		.loc 1 18 0
  72              		.cfi_startproc
  73              		@ args = 0, pretend = 0, frame = 0
  74              		@ frame_needed = 0, uses_anonymous_args = 0
  75              		@ link register save eliminated.
  76              	.LVL5:
  19:E:/Users/VuHaiLong/Desktop/mbed/arm_new/mylib/mSrc\systick.c **** 	
  20:E:/Users/VuHaiLong/Desktop/mbed/arm_new/mylib/mSrc\systick.c **** 	unsigned int temp_reg;
  21:E:/Users/VuHaiLong/Desktop/mbed/arm_new/mylib/mSrc\systick.c **** 	
  22:E:/Users/VuHaiLong/Desktop/mbed/arm_new/mylib/mSrc\systick.c **** 	// ghi gia tri cho reload value register
  23:E:/Users/VuHaiLong/Desktop/mbed/arm_new/mylib/mSrc\systick.c **** 	write_reg(mSYST_RVR , value);
  77              		.loc 1 23 0
  78 0000 054B     		ldr	r3, .L5
  79 0002 1860     		str	r0, [r3]
  24:E:/Users/VuHaiLong/Desktop/mbed/arm_new/mylib/mSrc\systick.c **** 	
  25:E:/Users/VuHaiLong/Desktop/mbed/arm_new/mylib/mSrc\systick.c **** 	// write for current value reload register
  26:E:/Users/VuHaiLong/Desktop/mbed/arm_new/mylib/mSrc\systick.c **** 	write_reg(mSYST_CVR , 0u);
  80              		.loc 1 26 0
  81 0004 0433     		adds	r3, r3, #4
  82 0006 0022     		movs	r2, #0
  83 0008 1A60     		str	r2, [r3]
  27:E:/Users/VuHaiLong/Desktop/mbed/arm_new/mylib/mSrc\systick.c **** 	
  28:E:/Users/VuHaiLong/Desktop/mbed/arm_new/mylib/mSrc\systick.c **** 	// enable systick 
  29:E:/Users/VuHaiLong/Desktop/mbed/arm_new/mylib/mSrc\systick.c **** 	temp_reg = read_reg(mSYST_CSR , ~(1<<0));
  84              		.loc 1 29 0
  85 000a 044A     		ldr	r2, .L5+4
  86 000c 1368     		ldr	r3, [r2]
  87              	.LVL6:
  30:E:/Users/VuHaiLong/Desktop/mbed/arm_new/mylib/mSrc\systick.c **** 	temp_reg |= 0x01 ;
ARM GAS  E:\msys32\tmp\ccxTZSrk.s 			page 3


  88              		.loc 1 30 0
  89 000e 43F00103 		orr	r3, r3, #1
  90              	.LVL7:
  31:E:/Users/VuHaiLong/Desktop/mbed/arm_new/mylib/mSrc\systick.c **** 	write_reg(mSYST_CSR , temp_reg);
  91              		.loc 1 31 0
  92 0012 1360     		str	r3, [r2]
  32:E:/Users/VuHaiLong/Desktop/mbed/arm_new/mylib/mSrc\systick.c **** 
  33:E:/Users/VuHaiLong/Desktop/mbed/arm_new/mylib/mSrc\systick.c **** 
  34:E:/Users/VuHaiLong/Desktop/mbed/arm_new/mylib/mSrc\systick.c **** }
  93              		.loc 1 34 0
  94 0014 7047     		bx	lr
  95              	.L6:
  96 0016 00BF     		.align	2
  97              	.L5:
  98 0018 14E000E0 		.word	-536813548
  99 001c 10E000E0 		.word	-536813552
 100              		.cfi_endproc
 101              	.LFE1:
 103              		.section	.text.get_state_systick,"ax",%progbits
 104              		.align	1
 105              		.global	get_state_systick
 106              		.syntax unified
 107              		.thumb
 108              		.thumb_func
 109              		.fpu fpv4-sp-d16
 111              	get_state_systick:
 112              	.LFB2:
  35:E:/Users/VuHaiLong/Desktop/mbed/arm_new/mylib/mSrc\systick.c **** // get COUNTFLAG;
  36:E:/Users/VuHaiLong/Desktop/mbed/arm_new/mylib/mSrc\systick.c **** unsigned int  get_state_systick(){
 113              		.loc 1 36 0
 114              		.cfi_startproc
 115              		@ args = 0, pretend = 0, frame = 0
 116              		@ frame_needed = 0, uses_anonymous_args = 0
 117              		@ link register save eliminated.
 118              	.LVL8:
  37:E:/Users/VuHaiLong/Desktop/mbed/arm_new/mylib/mSrc\systick.c **** 
  38:E:/Users/VuHaiLong/Desktop/mbed/arm_new/mylib/mSrc\systick.c **** 		unsigned int temp_reg = read_reg(mSYST_CSR , (1 <<16));
  39:E:/Users/VuHaiLong/Desktop/mbed/arm_new/mylib/mSrc\systick.c **** 		temp_reg =  temp_reg >> 16;
 119              		.loc 1 39 0
 120 0000 024B     		ldr	r3, .L8
 121              	.LVL9:
 122 0002 5888     		ldrh	r0, [r3, #2]
 123              	.LVL10:
  40:E:/Users/VuHaiLong/Desktop/mbed/arm_new/mylib/mSrc\systick.c **** 		return temp_reg;
  41:E:/Users/VuHaiLong/Desktop/mbed/arm_new/mylib/mSrc\systick.c **** }	
 124              		.loc 1 41 0
 125 0004 00F00100 		and	r0, r0, #1
 126              	.LVL11:
 127 0008 7047     		bx	lr
 128              	.L9:
 129 000a 00BF     		.align	2
 130              	.L8:
 131 000c 10E000E0 		.word	-536813552
 132              		.cfi_endproc
 133              	.LFE2:
 135              		.section	.text.delay_ms_systick,"ax",%progbits
 136              		.align	1
ARM GAS  E:\msys32\tmp\ccxTZSrk.s 			page 4


 137              		.global	delay_ms_systick
 138              		.syntax unified
 139              		.thumb
 140              		.thumb_func
 141              		.fpu fpv4-sp-d16
 143              	delay_ms_systick:
 144              	.LFB3:
  42:E:/Users/VuHaiLong/Desktop/mbed/arm_new/mylib/mSrc\systick.c **** void delay_ms_systick(unsigned int value){
 145              		.loc 1 42 0
 146              		.cfi_startproc
 147              		@ args = 0, pretend = 0, frame = 0
 148              		@ frame_needed = 0, uses_anonymous_args = 0
 149              	.LVL12:
 150 0000 10B5     		push	{r4, lr}
 151              	.LCFI0:
 152              		.cfi_def_cfa_offset 8
 153              		.cfi_offset 4, -8
 154              		.cfi_offset 14, -4
  43:E:/Users/VuHaiLong/Desktop/mbed/arm_new/mylib/mSrc\systick.c **** 	value += value;
 155              		.loc 1 43 0
 156 0002 4000     		lsls	r0, r0, #1
 157              	.LVL13:
  44:E:/Users/VuHaiLong/Desktop/mbed/arm_new/mylib/mSrc\systick.c **** 	while( value --){
 158              		.loc 1 44 0
 159 0004 08E0     		b	.L11
 160              	.LVL14:
 161              	.L13:
  45:E:/Users/VuHaiLong/Desktop/mbed/arm_new/mylib/mSrc\systick.c **** 		// 0.5ms . clock = 100mhz 
  46:E:/Users/VuHaiLong/Desktop/mbed/arm_new/mylib/mSrc\systick.c **** 			systick_start(0xC34FU);
 162              		.loc 1 46 0
 163 0006 4CF24F30 		movw	r0, #49999
 164 000a FFF7FEFF 		bl	systick_start
 165              	.LVL15:
 166              	.L12:
  47:E:/Users/VuHaiLong/Desktop/mbed/arm_new/mylib/mSrc\systick.c **** 			while( 0 == get_state_systick());
 167              		.loc 1 47 0 discriminator 1
 168 000e FFF7FEFF 		bl	get_state_systick
 169              	.LVL16:
 170 0012 0028     		cmp	r0, #0
 171 0014 FBD0     		beq	.L12
  44:E:/Users/VuHaiLong/Desktop/mbed/arm_new/mylib/mSrc\systick.c **** 	while( value --){
 172              		.loc 1 44 0
 173 0016 2046     		mov	r0, r4
 174              	.LVL17:
 175              	.L11:
 176 0018 441E     		subs	r4, r0, #1
 177              	.LVL18:
 178 001a 0028     		cmp	r0, #0
 179 001c F3D1     		bne	.L13
  48:E:/Users/VuHaiLong/Desktop/mbed/arm_new/mylib/mSrc\systick.c **** 	}
  49:E:/Users/VuHaiLong/Desktop/mbed/arm_new/mylib/mSrc\systick.c **** 	
  50:E:/Users/VuHaiLong/Desktop/mbed/arm_new/mylib/mSrc\systick.c **** }
 180              		.loc 1 50 0
 181 001e 10BD     		pop	{r4, pc}
 182              		.cfi_endproc
 183              	.LFE3:
 185              		.text
ARM GAS  E:\msys32\tmp\ccxTZSrk.s 			page 5


 186              	.Letext0:
ARM GAS  E:\msys32\tmp\ccxTZSrk.s 			page 6

