ARM GAS  E:\msys32\tmp\ccnQOUNI.s 			page 1


   1              		.cpu cortex-m4
   2              		.eabi_attribute 27, 1
   3              		.eabi_attribute 28, 1
   4              		.eabi_attribute 20, 1
   5              		.eabi_attribute 21, 1
   6              		.eabi_attribute 23, 3
   7              		.eabi_attribute 24, 1
   8              		.eabi_attribute 25, 1
   9              		.eabi_attribute 26, 1
  10              		.eabi_attribute 30, 1
  11              		.eabi_attribute 34, 1
  12              		.eabi_attribute 18, 4
  13              		.file	"stm32f4xx_it.c"
  14              		.text
  15              	.Ltext0:
  16              		.cfi_sections	.debug_frame
  17              		.section	.text.NMI_Handler,"ax",%progbits
  18              		.align	1
  19              		.global	NMI_Handler
  20              		.syntax unified
  21              		.thumb
  22              		.thumb_func
  23              		.fpu fpv4-sp-d16
  25              	NMI_Handler:
  26              	.LFB0:
  27              		.file 1 "Src/stm32f4xx_it.c"
   1:Src/stm32f4xx_it.c **** #include "project.h"
   2:Src/stm32f4xx_it.c **** 
   3:Src/stm32f4xx_it.c **** void NMI_Handler(void)
   4:Src/stm32f4xx_it.c **** {
  28              		.loc 1 4 0
  29              		.cfi_startproc
  30              		@ args = 0, pretend = 0, frame = 0
  31              		@ frame_needed = 0, uses_anonymous_args = 0
  32              		@ link register save eliminated.
   5:Src/stm32f4xx_it.c **** }
  33              		.loc 1 5 0
  34 0000 7047     		bx	lr
  35              		.cfi_endproc
  36              	.LFE0:
  38              		.section	.text.HardFault_Handler,"ax",%progbits
  39              		.align	1
  40              		.global	HardFault_Handler
  41              		.syntax unified
  42              		.thumb
  43              		.thumb_func
  44              		.fpu fpv4-sp-d16
  46              	HardFault_Handler:
  47              	.LFB1:
   6:Src/stm32f4xx_it.c **** 
   7:Src/stm32f4xx_it.c **** void HardFault_Handler(void)
   8:Src/stm32f4xx_it.c **** {
  48              		.loc 1 8 0
  49              		.cfi_startproc
  50              		@ Volatile: function does not return.
  51              		@ args = 0, pretend = 0, frame = 0
  52              		@ frame_needed = 0, uses_anonymous_args = 0
ARM GAS  E:\msys32\tmp\ccnQOUNI.s 			page 2


  53              		@ link register save eliminated.
  54              	.L3:
  55 0000 FEE7     		b	.L3
  56              		.cfi_endproc
  57              	.LFE1:
  59              		.section	.text.MemManage_Handler,"ax",%progbits
  60              		.align	1
  61              		.global	MemManage_Handler
  62              		.syntax unified
  63              		.thumb
  64              		.thumb_func
  65              		.fpu fpv4-sp-d16
  67              	MemManage_Handler:
  68              	.LFB2:
   9:Src/stm32f4xx_it.c ****   while (1)
  10:Src/stm32f4xx_it.c ****   {
  11:Src/stm32f4xx_it.c ****   }
  12:Src/stm32f4xx_it.c **** }
  13:Src/stm32f4xx_it.c **** void MemManage_Handler(void)
  14:Src/stm32f4xx_it.c **** {
  69              		.loc 1 14 0
  70              		.cfi_startproc
  71              		@ Volatile: function does not return.
  72              		@ args = 0, pretend = 0, frame = 0
  73              		@ frame_needed = 0, uses_anonymous_args = 0
  74              		@ link register save eliminated.
  75              	.L5:
  76 0000 FEE7     		b	.L5
  77              		.cfi_endproc
  78              	.LFE2:
  80              		.section	.text.BusFault_Handler,"ax",%progbits
  81              		.align	1
  82              		.global	BusFault_Handler
  83              		.syntax unified
  84              		.thumb
  85              		.thumb_func
  86              		.fpu fpv4-sp-d16
  88              	BusFault_Handler:
  89              	.LFB3:
  15:Src/stm32f4xx_it.c ****   while (1)
  16:Src/stm32f4xx_it.c ****   {
  17:Src/stm32f4xx_it.c ****   }
  18:Src/stm32f4xx_it.c **** }
  19:Src/stm32f4xx_it.c **** 
  20:Src/stm32f4xx_it.c **** void BusFault_Handler(void)
  21:Src/stm32f4xx_it.c **** {
  90              		.loc 1 21 0
  91              		.cfi_startproc
  92              		@ Volatile: function does not return.
  93              		@ args = 0, pretend = 0, frame = 0
  94              		@ frame_needed = 0, uses_anonymous_args = 0
  95              		@ link register save eliminated.
  96              	.L7:
  97 0000 FEE7     		b	.L7
  98              		.cfi_endproc
  99              	.LFE3:
 101              		.section	.text.UsageFault_Handler,"ax",%progbits
ARM GAS  E:\msys32\tmp\ccnQOUNI.s 			page 3


 102              		.align	1
 103              		.global	UsageFault_Handler
 104              		.syntax unified
 105              		.thumb
 106              		.thumb_func
 107              		.fpu fpv4-sp-d16
 109              	UsageFault_Handler:
 110              	.LFB4:
  22:Src/stm32f4xx_it.c ****   while (1)
  23:Src/stm32f4xx_it.c ****   {
  24:Src/stm32f4xx_it.c ****   }
  25:Src/stm32f4xx_it.c **** 
  26:Src/stm32f4xx_it.c **** }
  27:Src/stm32f4xx_it.c **** 
  28:Src/stm32f4xx_it.c **** void UsageFault_Handler(void)
  29:Src/stm32f4xx_it.c **** {
 111              		.loc 1 29 0
 112              		.cfi_startproc
 113              		@ Volatile: function does not return.
 114              		@ args = 0, pretend = 0, frame = 0
 115              		@ frame_needed = 0, uses_anonymous_args = 0
 116              		@ link register save eliminated.
 117              	.L9:
 118 0000 FEE7     		b	.L9
 119              		.cfi_endproc
 120              	.LFE4:
 122              		.section	.text.SVC_Handler,"ax",%progbits
 123              		.align	1
 124              		.global	SVC_Handler
 125              		.syntax unified
 126              		.thumb
 127              		.thumb_func
 128              		.fpu fpv4-sp-d16
 130              	SVC_Handler:
 131              	.LFB5:
  30:Src/stm32f4xx_it.c ****   while (1)
  31:Src/stm32f4xx_it.c ****   {
  32:Src/stm32f4xx_it.c ****   }
  33:Src/stm32f4xx_it.c **** }
  34:Src/stm32f4xx_it.c **** void SVC_Handler(void)
  35:Src/stm32f4xx_it.c **** {
 132              		.loc 1 35 0
 133              		.cfi_startproc
 134              		@ args = 0, pretend = 0, frame = 0
 135              		@ frame_needed = 0, uses_anonymous_args = 0
 136              		@ link register save eliminated.
  36:Src/stm32f4xx_it.c **** }
 137              		.loc 1 36 0
 138 0000 7047     		bx	lr
 139              		.cfi_endproc
 140              	.LFE5:
 142              		.section	.text.DebugMon_Handler,"ax",%progbits
 143              		.align	1
 144              		.global	DebugMon_Handler
 145              		.syntax unified
 146              		.thumb
 147              		.thumb_func
ARM GAS  E:\msys32\tmp\ccnQOUNI.s 			page 4


 148              		.fpu fpv4-sp-d16
 150              	DebugMon_Handler:
 151              	.LFB6:
  37:Src/stm32f4xx_it.c **** 
  38:Src/stm32f4xx_it.c **** void DebugMon_Handler(void)
  39:Src/stm32f4xx_it.c **** {
 152              		.loc 1 39 0
 153              		.cfi_startproc
 154              		@ args = 0, pretend = 0, frame = 0
 155              		@ frame_needed = 0, uses_anonymous_args = 0
 156              		@ link register save eliminated.
  40:Src/stm32f4xx_it.c **** }
 157              		.loc 1 40 0
 158 0000 7047     		bx	lr
 159              		.cfi_endproc
 160              	.LFE6:
 162              		.section	.text.PendSV_Handler,"ax",%progbits
 163              		.align	1
 164              		.global	PendSV_Handler
 165              		.syntax unified
 166              		.thumb
 167              		.thumb_func
 168              		.fpu fpv4-sp-d16
 170              	PendSV_Handler:
 171              	.LFB7:
  41:Src/stm32f4xx_it.c **** 
  42:Src/stm32f4xx_it.c **** void PendSV_Handler(void)
  43:Src/stm32f4xx_it.c **** {
 172              		.loc 1 43 0
 173              		.cfi_startproc
 174              		@ args = 0, pretend = 0, frame = 0
 175              		@ frame_needed = 0, uses_anonymous_args = 0
 176              		@ link register save eliminated.
  44:Src/stm32f4xx_it.c **** }
 177              		.loc 1 44 0
 178 0000 7047     		bx	lr
 179              		.cfi_endproc
 180              	.LFE7:
 182              		.section	.text.SysTick_Handler,"ax",%progbits
 183              		.align	1
 184              		.global	SysTick_Handler
 185              		.syntax unified
 186              		.thumb
 187              		.thumb_func
 188              		.fpu fpv4-sp-d16
 190              	SysTick_Handler:
 191              	.LFB8:
  45:Src/stm32f4xx_it.c **** 
  46:Src/stm32f4xx_it.c **** void SysTick_Handler(void)
  47:Src/stm32f4xx_it.c **** {
 192              		.loc 1 47 0
 193              		.cfi_startproc
 194              		@ args = 0, pretend = 0, frame = 0
 195              		@ frame_needed = 0, uses_anonymous_args = 0
 196              		@ link register save eliminated.
  48:Src/stm32f4xx_it.c **** }
 197              		.loc 1 48 0
ARM GAS  E:\msys32\tmp\ccnQOUNI.s 			page 5


 198 0000 7047     		bx	lr
 199              		.cfi_endproc
 200              	.LFE8:
 202              		.section	.text.mNVIC_SetPriority,"ax",%progbits
 203              		.align	1
 204              		.global	mNVIC_SetPriority
 205              		.syntax unified
 206              		.thumb
 207              		.thumb_func
 208              		.fpu fpv4-sp-d16
 210              	mNVIC_SetPriority:
 211              	.LFB9:
  49:Src/stm32f4xx_it.c **** void mNVIC_SetPriority(IRQn_Type ipr , u32_t pri){
 212              		.loc 1 49 0
 213              		.cfi_startproc
 214              		@ args = 0, pretend = 0, frame = 0
 215              		@ frame_needed = 0, uses_anonymous_args = 0
 216              		@ link register save eliminated.
 217              	.LVL0:
  50:Src/stm32f4xx_it.c **** 	// chia 4 .. stm32f4 chi dung 4 bit priority	 
  51:Src/stm32f4xx_it.c **** 	u32_t addr_ipr = (mNVIC_IPR(( (u32_t)ipr >> 2u ))) ;
 218              		.loc 1 51 0
 219 0000 8008     		lsrs	r0, r0, #2
 220              	.LVL1:
 221 0002 00F16050 		add	r0, r0, #939524096
 222 0006 00F56450 		add	r0, r0, #14592
 223 000a 8000     		lsls	r0, r0, #2
 224              	.LVL2:
  52:Src/stm32f4xx_it.c **** 	u32_t temp_reg = read_reg(addr_ipr, ~0u);
 225              		.loc 1 52 0
 226 000c 0368     		ldr	r3, [r0]
 227              	.LVL3:
  53:Src/stm32f4xx_it.c **** 	temp_reg |=  ( ((u32_t)pri  & 0xFFu ) << 4u ) ;
 228              		.loc 1 53 0
 229 000e 0901     		lsls	r1, r1, #4
 230              	.LVL4:
 231 0010 01F47F61 		and	r1, r1, #4080
 232 0014 1943     		orrs	r1, r1, r3
 233              	.LVL5:
  54:Src/stm32f4xx_it.c **** 	write_reg(addr_ipr, temp_reg);
 234              		.loc 1 54 0
 235 0016 0160     		str	r1, [r0]
  55:Src/stm32f4xx_it.c **** 	 
  56:Src/stm32f4xx_it.c **** }
 236              		.loc 1 56 0
 237 0018 7047     		bx	lr
 238              		.cfi_endproc
 239              	.LFE9:
 241              		.section	.text.mNVIC_EnableIRQ,"ax",%progbits
 242              		.align	1
 243              		.global	mNVIC_EnableIRQ
 244              		.syntax unified
 245              		.thumb
 246              		.thumb_func
 247              		.fpu fpv4-sp-d16
 249              	mNVIC_EnableIRQ:
 250              	.LFB10:
ARM GAS  E:\msys32\tmp\ccnQOUNI.s 			page 6


  57:Src/stm32f4xx_it.c **** void mNVIC_EnableIRQ(IRQn_Type irq){
 251              		.loc 1 57 0
 252              		.cfi_startproc
 253              		@ args = 0, pretend = 0, frame = 0
 254              		@ frame_needed = 0, uses_anonymous_args = 0
 255              		@ link register save eliminated.
 256              	.LVL6:
  58:Src/stm32f4xx_it.c **** 	// iser /32 ,%32
  59:Src/stm32f4xx_it.c **** 	u32_t addr_irq = mNVIC_ISER( ((u32_t)irq >> 5u) )  ;
 257              		.loc 1 59 0
 258 0000 4309     		lsrs	r3, r0, #5
 259 0002 03F13823 		add	r3, r3, #939538432
 260 0006 4033     		adds	r3, r3, #64
 261 0008 9B00     		lsls	r3, r3, #2
 262              	.LVL7:
  60:Src/stm32f4xx_it.c **** 	
  61:Src/stm32f4xx_it.c **** 	u32_t temp_reg = read_reg(addr_irq , ~0u);
 263              		.loc 1 61 0
 264 000a 1968     		ldr	r1, [r3]
 265              	.LVL8:
  62:Src/stm32f4xx_it.c **** 	temp_reg |=  (u32_t)(1UL << ((u32_t)irq & 0x1Fu )) ;
 266              		.loc 1 62 0
 267 000c 00F01F02 		and	r2, r0, #31
 268 0010 0120     		movs	r0, #1
 269              	.LVL9:
 270 0012 9040     		lsls	r0, r0, r2
 271 0014 0843     		orrs	r0, r0, r1
 272              	.LVL10:
  63:Src/stm32f4xx_it.c **** 	write_reg(addr_irq, temp_reg);
 273              		.loc 1 63 0
 274 0016 1860     		str	r0, [r3]
  64:Src/stm32f4xx_it.c **** 	
  65:Src/stm32f4xx_it.c **** }
 275              		.loc 1 65 0
 276 0018 7047     		bx	lr
 277              		.cfi_endproc
 278              	.LFE10:
 280              		.text
 281              	.Letext0:
 282              		.file 2 "E:/Users/VuHaiLong/Documents/stm/mylib/mInc/mtype.h"
 283              		.file 3 "E:/Users/VuHaiLong/Documents/stm/mylib/mInc/const.h"
 284              		.file 4 "Inc/stm32f4xx_it.h"
ARM GAS  E:\msys32\tmp\ccnQOUNI.s 			page 7

