ARM GAS  E:\msys32\tmp\ccmkniDv.s 			page 1


   1              		.cpu cortex-m4
   2              		.eabi_attribute 27, 1
   3              		.eabi_attribute 28, 1
   4              		.eabi_attribute 20, 1
   5              		.eabi_attribute 21, 1
   6              		.eabi_attribute 23, 3
   7              		.eabi_attribute 24, 1
   8              		.eabi_attribute 25, 1
   9              		.eabi_attribute 26, 1
  10              		.eabi_attribute 30, 1
  11              		.eabi_attribute 34, 1
  12              		.eabi_attribute 18, 4
  13              		.file	"main.c"
  14              		.text
  15              	.Ltext0:
  16              		.cfi_sections	.debug_frame
  17              		.section	.text.taskTest1,"ax",%progbits
  18              		.align	1
  19              		.global	taskTest1
  20              		.syntax unified
  21              		.thumb
  22              		.thumb_func
  23              		.fpu fpv4-sp-d16
  25              	taskTest1:
  26              	.LFB11:
  27              		.file 1 "Src/main.c"
   1:Src/main.c    **** 
   2:Src/main.c    **** #include "project.h"
   3:Src/main.c    **** #include "string.h"
   4:Src/main.c    **** #include <stdlib.h>
   5:Src/main.c    **** TaskHandle_t pxTask = NULL;
   6:Src/main.c    **** TaskHandle_t pxTask_receive = NULL;
   7:Src/main.c    **** 
   8:Src/main.c    **** 
   9:Src/main.c    **** void vApplicationIdleHook( void ){
  10:Src/main.c    **** }
  11:Src/main.c    **** 
  12:Src/main.c    **** void vApplicationStackOverflowHook(){
  13:Src/main.c    **** 	while(1){
  14:Src/main.c    **** 		
  15:Src/main.c    **** 	}
  16:Src/main.c    **** }
  17:Src/main.c    **** void vApplicationMallocFailedHook(){
  18:Src/main.c    **** 	while(1){
  19:Src/main.c    **** 		
  20:Src/main.c    **** 	}
  21:Src/main.c    **** }
  22:Src/main.c    **** void rcc_enableclk(){
  23:Src/main.c    **** 	enable_rcc_gpioh();
  24:Src/main.c    **** 	enable_rcc_gpiod();
  25:Src/main.c    **** 	// for pb6 Rx , PB7 TX
  26:Src/main.c    **** 	enable_rcc_gpiob();
  27:Src/main.c    **** }
  28:Src/main.c    **** void init_interrupt( ){
  29:Src/main.c    **** 	
  30:Src/main.c    **** 	unsigned int temp_reg;
  31:Src/main.c    **** 	/* usart1 */
ARM GAS  E:\msys32\tmp\ccmkniDv.s 			page 2


  32:Src/main.c    **** 
  33:Src/main.c    ****     /* Tx interrupt */
  34:Src/main.c    ****     temp_reg = read_reg(mUSART_CR1(mUSART1), ~(1 << 6));
  35:Src/main.c    ****     temp_reg |= (1 << 6);
  36:Src/main.c    ****     write_reg(mUSART_CR1(mUSART1), temp_reg);
  37:Src/main.c    **** 
  38:Src/main.c    ****     /* Rx interrupt - RXNEIE */
  39:Src/main.c    ****     temp_reg = read_reg(mUSART_CR1(mUSART1), ~(1 << 5));
  40:Src/main.c    ****     temp_reg |= (1 << 5);
  41:Src/main.c    ****     write_reg(mUSART_CR1(mUSART1), temp_reg);
  42:Src/main.c    **** 	
  43:Src/main.c    **** 	//temp_reg = read_reg(SCB_AIRCR , ~0u);
  44:Src/main.c    **** 	temp_reg = (0x5FAu << 16);
  45:Src/main.c    **** 	write_reg(SCB_AIRCR , temp_reg);
  46:Src/main.c    **** 	
  47:Src/main.c    **** 	temp_reg = read_reg(SCB_AIRCR , ~(0xFu << 8));
  48:Src/main.c    **** 	temp_reg |= (3u << 8);
  49:Src/main.c    **** 	write_reg(SCB_AIRCR , temp_reg);
  50:Src/main.c    **** 	
  51:Src/main.c    **** 	
  52:Src/main.c    ****     
  53:Src/main.c    **** 	mNVIC_SetPriority((USART1_IRQn) ,5);
  54:Src/main.c    **** 	mNVIC_EnableIRQ(USART1_IRQn);
  55:Src/main.c    **** 
  56:Src/main.c    ****     asm("cpsie i") ;	
  57:Src/main.c    **** 	
  58:Src/main.c    **** }
  59:Src/main.c    **** void config_pin()
  60:Src/main.c    **** {
  61:Src/main.c    **** 	mGPIO_TypeDef GPIO_Init;
  62:Src/main.c    **** 	GPIO_Init.mpin  =  mGPIO_PIN(15) | mGPIO_PIN(14)|mGPIO_PIN(13)|mGPIO_PIN(12);
  63:Src/main.c    **** 	GPIO_Init.moder = mGPIO_MODER_OUTPUT;
  64:Src/main.c    **** 	GPIO_Init.type = mPUSH_PULL;
  65:Src/main.c    **** 	GPIO_Init.pull  = mNO_PULL;
  66:Src/main.c    **** 	GPIO_Init.speed = mFAST_SPEED;
  67:Src/main.c    **** 	init_pin(mGPIOD , &GPIO_Init);
  68:Src/main.c    **** 	
  69:Src/main.c    **** 	
  70:Src/main.c    **** 	// TIM2  EXTERNAL INPUT
  71:Src/main.c    **** 	GPIO_Init.mpin  =  mGPIO_PIN(0);
  72:Src/main.c    **** 	GPIO_Init.moder = mGPIO_MODER_ALT;
  73:Src/main.c    **** 	GPIO_Init.type = mPUSH_PULL;
  74:Src/main.c    **** 	GPIO_Init.pull  = mNO_PULL;
  75:Src/main.c    **** 	GPIO_Init.speed = mFAST_SPEED;
  76:Src/main.c    **** 	GPIO_Init.alternate = 1;
  77:Src/main.c    **** 	init_pin(mGPIOA , &GPIO_Init); 
  78:Src/main.c    **** }
  79:Src/main.c    **** void taskTest1(){
  28              		.loc 1 79 0
  29              		.cfi_startproc
  30              		@ Volatile: function does not return.
  31              		@ args = 0, pretend = 0, frame = 0
  32              		@ frame_needed = 0, uses_anonymous_args = 0
  33 0000 08B5     		push	{r3, lr}
  34              	.LCFI0:
  35              		.cfi_def_cfa_offset 8
  36              		.cfi_offset 3, -8
ARM GAS  E:\msys32\tmp\ccmkniDv.s 			page 3


  37              		.cfi_offset 14, -4
  38              	.L2:
  80:Src/main.c    **** 
  81:Src/main.c    **** 	while(1){
  82:Src/main.c    **** 		
  83:Src/main.c    **** 		GPIO_TongglePin(mGPIOD , mGPIO_PIN(12));
  39              		.loc 1 83 0 discriminator 1
  40 0002 4FF48051 		mov	r1, #4096
  41 0006 0448     		ldr	r0, .L4
  42 0008 FFF7FEFF 		bl	GPIO_TongglePin
  43              	.LVL0:
  84:Src/main.c    **** 		
  85:Src/main.c    **** 		vTaskDelay(pdMS_TO_TICKS(1000));
  44              		.loc 1 85 0 discriminator 1
  45 000c 4FF47A70 		mov	r0, #1000
  46 0010 FFF7FEFF 		bl	vTaskDelay
  47              	.LVL1:
  48 0014 F5E7     		b	.L2
  49              	.L5:
  50 0016 00BF     		.align	2
  51              	.L4:
  52 0018 000C0240 		.word	1073875968
  53              		.cfi_endproc
  54              	.LFE11:
  56              		.section	.text.taskTest2,"ax",%progbits
  57              		.align	1
  58              		.global	taskTest2
  59              		.syntax unified
  60              		.thumb
  61              		.thumb_func
  62              		.fpu fpv4-sp-d16
  64              	taskTest2:
  65              	.LFB12:
  86:Src/main.c    **** 	}
  87:Src/main.c    **** 	
  88:Src/main.c    **** 	
  89:Src/main.c    **** }
  90:Src/main.c    **** void taskTest2(){
  66              		.loc 1 90 0
  67              		.cfi_startproc
  68              		@ Volatile: function does not return.
  69              		@ args = 0, pretend = 0, frame = 0
  70              		@ frame_needed = 0, uses_anonymous_args = 0
  71 0000 08B5     		push	{r3, lr}
  72              	.LCFI1:
  73              		.cfi_def_cfa_offset 8
  74              		.cfi_offset 3, -8
  75              		.cfi_offset 14, -4
  76              	.L7:
  91:Src/main.c    **** 
  92:Src/main.c    **** 	while(1){
  93:Src/main.c    **** 		
  94:Src/main.c    **** 		GPIO_TongglePin(mGPIOD , mGPIO_PIN(13));
  77              		.loc 1 94 0 discriminator 1
  78 0002 4FF40051 		mov	r1, #8192
  79 0006 0848     		ldr	r0, .L9
  80 0008 FFF7FEFF 		bl	GPIO_TongglePin
ARM GAS  E:\msys32\tmp\ccmkniDv.s 			page 4


  81              	.LVL2:
  95:Src/main.c    **** 		
  96:Src/main.c    **** 		portYIELD();
  82              		.loc 1 96 0 discriminator 1
  83 000c 074B     		ldr	r3, .L9+4
  84 000e 4FF08052 		mov	r2, #268435456
  85 0012 1A60     		str	r2, [r3]
  86              		.syntax unified
  87              	@ 96 "Src/main.c" 1
  88 0014 BFF34F8F 		dsb
  89              	@ 0 "" 2
  90              	@ 96 "Src/main.c" 1
  91 0018 BFF36F8F 		isb
  92              	@ 0 "" 2
  97:Src/main.c    **** 		vTaskDelay(pdMS_TO_TICKS(1000));
  93              		.loc 1 97 0 discriminator 1
  94              		.thumb
  95              		.syntax unified
  96 001c 4FF47A70 		mov	r0, #1000
  97 0020 FFF7FEFF 		bl	vTaskDelay
  98              	.LVL3:
  99 0024 EDE7     		b	.L7
 100              	.L10:
 101 0026 00BF     		.align	2
 102              	.L9:
 103 0028 000C0240 		.word	1073875968
 104 002c 04ED00E0 		.word	-536810236
 105              		.cfi_endproc
 106              	.LFE12:
 108              		.section	.text.vApplicationIdleHook,"ax",%progbits
 109              		.align	1
 110              		.global	vApplicationIdleHook
 111              		.syntax unified
 112              		.thumb
 113              		.thumb_func
 114              		.fpu fpv4-sp-d16
 116              	vApplicationIdleHook:
 117              	.LFB5:
   9:Src/main.c    **** }
 118              		.loc 1 9 0
 119              		.cfi_startproc
 120              		@ args = 0, pretend = 0, frame = 0
 121              		@ frame_needed = 0, uses_anonymous_args = 0
 122              		@ link register save eliminated.
  10:Src/main.c    **** 
 123              		.loc 1 10 0
 124 0000 7047     		bx	lr
 125              		.cfi_endproc
 126              	.LFE5:
 128              		.section	.text.vApplicationStackOverflowHook,"ax",%progbits
 129              		.align	1
 130              		.global	vApplicationStackOverflowHook
 131              		.syntax unified
 132              		.thumb
 133              		.thumb_func
 134              		.fpu fpv4-sp-d16
 136              	vApplicationStackOverflowHook:
ARM GAS  E:\msys32\tmp\ccmkniDv.s 			page 5


 137              	.LFB6:
  12:Src/main.c    **** 	while(1){
 138              		.loc 1 12 0
 139              		.cfi_startproc
 140              		@ Volatile: function does not return.
 141              		@ args = 0, pretend = 0, frame = 0
 142              		@ frame_needed = 0, uses_anonymous_args = 0
 143              		@ link register save eliminated.
 144              	.L13:
 145 0000 FEE7     		b	.L13
 146              		.cfi_endproc
 147              	.LFE6:
 149              		.section	.text.vApplicationMallocFailedHook,"ax",%progbits
 150              		.align	1
 151              		.global	vApplicationMallocFailedHook
 152              		.syntax unified
 153              		.thumb
 154              		.thumb_func
 155              		.fpu fpv4-sp-d16
 157              	vApplicationMallocFailedHook:
 158              	.LFB7:
  17:Src/main.c    **** 	while(1){
 159              		.loc 1 17 0
 160              		.cfi_startproc
 161              		@ Volatile: function does not return.
 162              		@ args = 0, pretend = 0, frame = 0
 163              		@ frame_needed = 0, uses_anonymous_args = 0
 164              		@ link register save eliminated.
 165              	.L15:
 166 0000 FEE7     		b	.L15
 167              		.cfi_endproc
 168              	.LFE7:
 170              		.section	.text.rcc_enableclk,"ax",%progbits
 171              		.align	1
 172              		.global	rcc_enableclk
 173              		.syntax unified
 174              		.thumb
 175              		.thumb_func
 176              		.fpu fpv4-sp-d16
 178              	rcc_enableclk:
 179              	.LFB8:
  22:Src/main.c    **** 	enable_rcc_gpioh();
 180              		.loc 1 22 0
 181              		.cfi_startproc
 182              		@ args = 0, pretend = 0, frame = 0
 183              		@ frame_needed = 0, uses_anonymous_args = 0
 184              		@ link register save eliminated.
  23:Src/main.c    **** 	enable_rcc_gpiod();
 185              		.loc 1 23 0
 186 0000 024A     		ldr	r2, .L17
 187 0002 1368     		ldr	r3, [r2]
  26:Src/main.c    **** }
 188              		.loc 1 26 0
 189 0004 43F08A03 		orr	r3, r3, #138
 190 0008 1360     		str	r3, [r2]
  27:Src/main.c    **** void init_interrupt( ){
 191              		.loc 1 27 0
ARM GAS  E:\msys32\tmp\ccmkniDv.s 			page 6


 192 000a 7047     		bx	lr
 193              	.L18:
 194              		.align	2
 195              	.L17:
 196 000c 30380240 		.word	1073887280
 197              		.cfi_endproc
 198              	.LFE8:
 200              		.section	.text.init_interrupt,"ax",%progbits
 201              		.align	1
 202              		.global	init_interrupt
 203              		.syntax unified
 204              		.thumb
 205              		.thumb_func
 206              		.fpu fpv4-sp-d16
 208              	init_interrupt:
 209              	.LFB9:
  28:Src/main.c    **** 	
 210              		.loc 1 28 0
 211              		.cfi_startproc
 212              		@ args = 0, pretend = 0, frame = 0
 213              		@ frame_needed = 0, uses_anonymous_args = 0
 214 0000 08B5     		push	{r3, lr}
 215              	.LCFI2:
 216              		.cfi_def_cfa_offset 8
 217              		.cfi_offset 3, -8
 218              		.cfi_offset 14, -4
  34:Src/main.c    ****     temp_reg |= (1 << 6);
 219              		.loc 1 34 0
 220 0002 084A     		ldr	r2, .L21
 221 0004 1368     		ldr	r3, [r2]
 222              	.LVL4:
  40:Src/main.c    ****     write_reg(mUSART_CR1(mUSART1), temp_reg);
 223              		.loc 1 40 0
 224 0006 43F06003 		orr	r3, r3, #96
 225              	.LVL5:
  41:Src/main.c    **** 	
 226              		.loc 1 41 0
 227 000a 1360     		str	r3, [r2]
 228              	.LVL6:
  49:Src/main.c    **** 	
 229              		.loc 1 49 0
 230 000c 064B     		ldr	r3, .L21+4
 231 000e 074A     		ldr	r2, .L21+8
 232 0010 1A60     		str	r2, [r3]
  53:Src/main.c    **** 	mNVIC_EnableIRQ(USART1_IRQn);
 233              		.loc 1 53 0
 234 0012 0521     		movs	r1, #5
 235 0014 2520     		movs	r0, #37
 236 0016 FFF7FEFF 		bl	mNVIC_SetPriority
 237              	.LVL7:
  54:Src/main.c    **** 
 238              		.loc 1 54 0
 239 001a 2520     		movs	r0, #37
 240 001c FFF7FEFF 		bl	mNVIC_EnableIRQ
 241              	.LVL8:
  56:Src/main.c    **** 	
 242              		.loc 1 56 0
ARM GAS  E:\msys32\tmp\ccmkniDv.s 			page 7


 243              		.syntax unified
 244              	@ 56 "Src/main.c" 1
 245 0020 62B6     		cpsie i
 246              	@ 0 "" 2
  58:Src/main.c    **** void config_pin()
 247              		.loc 1 58 0
 248              		.thumb
 249              		.syntax unified
 250 0022 08BD     		pop	{r3, pc}
 251              	.L22:
 252              		.align	2
 253              	.L21:
 254 0024 0C100140 		.word	1073811468
 255 0028 0CED00E0 		.word	-536810228
 256 002c 0003FA05 		.word	100270848
 257              		.cfi_endproc
 258              	.LFE9:
 260              		.section	.text.config_pin,"ax",%progbits
 261              		.align	1
 262              		.global	config_pin
 263              		.syntax unified
 264              		.thumb
 265              		.thumb_func
 266              		.fpu fpv4-sp-d16
 268              	config_pin:
 269              	.LFB10:
  60:Src/main.c    **** 	mGPIO_TypeDef GPIO_Init;
 270              		.loc 1 60 0
 271              		.cfi_startproc
 272              		@ args = 0, pretend = 0, frame = 24
 273              		@ frame_needed = 0, uses_anonymous_args = 0
 274 0000 70B5     		push	{r4, r5, r6, lr}
 275              	.LCFI3:
 276              		.cfi_def_cfa_offset 16
 277              		.cfi_offset 4, -16
 278              		.cfi_offset 5, -12
 279              		.cfi_offset 6, -8
 280              		.cfi_offset 14, -4
 281 0002 86B0     		sub	sp, sp, #24
 282              	.LCFI4:
 283              		.cfi_def_cfa_offset 40
  62:Src/main.c    **** 	GPIO_Init.moder = mGPIO_MODER_OUTPUT;
 284              		.loc 1 62 0
 285 0004 4FF47043 		mov	r3, #61440
 286 0008 0093     		str	r3, [sp]
  63:Src/main.c    **** 	GPIO_Init.type = mPUSH_PULL;
 287              		.loc 1 63 0
 288 000a 0125     		movs	r5, #1
 289 000c 0195     		str	r5, [sp, #4]
  64:Src/main.c    **** 	GPIO_Init.pull  = mNO_PULL;
 290              		.loc 1 64 0
 291 000e 0024     		movs	r4, #0
 292 0010 0294     		str	r4, [sp, #8]
  65:Src/main.c    **** 	GPIO_Init.speed = mFAST_SPEED;
 293              		.loc 1 65 0
 294 0012 0394     		str	r4, [sp, #12]
  66:Src/main.c    **** 	init_pin(mGPIOD , &GPIO_Init);
ARM GAS  E:\msys32\tmp\ccmkniDv.s 			page 8


 295              		.loc 1 66 0
 296 0014 0226     		movs	r6, #2
 297 0016 0496     		str	r6, [sp, #16]
  67:Src/main.c    **** 	
 298              		.loc 1 67 0
 299 0018 6946     		mov	r1, sp
 300 001a 0748     		ldr	r0, .L25
 301 001c FFF7FEFF 		bl	init_pin
 302              	.LVL9:
  71:Src/main.c    **** 	GPIO_Init.moder = mGPIO_MODER_ALT;
 303              		.loc 1 71 0
 304 0020 0095     		str	r5, [sp]
  72:Src/main.c    **** 	GPIO_Init.type = mPUSH_PULL;
 305              		.loc 1 72 0
 306 0022 0196     		str	r6, [sp, #4]
  73:Src/main.c    **** 	GPIO_Init.pull  = mNO_PULL;
 307              		.loc 1 73 0
 308 0024 0294     		str	r4, [sp, #8]
  74:Src/main.c    **** 	GPIO_Init.speed = mFAST_SPEED;
 309              		.loc 1 74 0
 310 0026 0394     		str	r4, [sp, #12]
  75:Src/main.c    **** 	GPIO_Init.alternate = 1;
 311              		.loc 1 75 0
 312 0028 0496     		str	r6, [sp, #16]
  76:Src/main.c    **** 	init_pin(mGPIOA , &GPIO_Init); 
 313              		.loc 1 76 0
 314 002a 0595     		str	r5, [sp, #20]
  77:Src/main.c    **** }
 315              		.loc 1 77 0
 316 002c 6946     		mov	r1, sp
 317 002e 0348     		ldr	r0, .L25+4
 318 0030 FFF7FEFF 		bl	init_pin
 319              	.LVL10:
  78:Src/main.c    **** void taskTest1(){
 320              		.loc 1 78 0
 321 0034 06B0     		add	sp, sp, #24
 322              	.LCFI5:
 323              		.cfi_def_cfa_offset 16
 324              		@ sp needed
 325 0036 70BD     		pop	{r4, r5, r6, pc}
 326              	.L26:
 327              		.align	2
 328              	.L25:
 329 0038 000C0240 		.word	1073875968
 330 003c 00000240 		.word	1073872896
 331              		.cfi_endproc
 332              	.LFE10:
 334              		.section	.text.main,"ax",%progbits
 335              		.align	1
 336              		.global	main
 337              		.syntax unified
 338              		.thumb
 339              		.thumb_func
 340              		.fpu fpv4-sp-d16
 342              	main:
 343              	.LFB13:
  98:Src/main.c    **** 	}
ARM GAS  E:\msys32\tmp\ccmkniDv.s 			page 9


  99:Src/main.c    **** 	
 100:Src/main.c    **** 	
 101:Src/main.c    **** }
 102:Src/main.c    **** 
 103:Src/main.c    **** 
 104:Src/main.c    **** int main(void)
 105:Src/main.c    **** {
 344              		.loc 1 105 0
 345              		.cfi_startproc
 346              		@ Volatile: function does not return.
 347              		@ args = 0, pretend = 0, frame = 0
 348              		@ frame_needed = 0, uses_anonymous_args = 0
 349 0000 00B5     		push	{lr}
 350              	.LCFI6:
 351              		.cfi_def_cfa_offset 4
 352              		.cfi_offset 14, -4
 353 0002 85B0     		sub	sp, sp, #20
 354              	.LCFI7:
 355              		.cfi_def_cfa_offset 24
 106:Src/main.c    **** 
 107:Src/main.c    **** 	//100mhz
 108:Src/main.c    **** 	system_init( 8, 200, mPLLP_DIV4 , mSRC_PLL, mAHB_DIV1 ,mAPB_DIV2  , mAPB_DIV1);
 356              		.loc 1 108 0
 357 0004 0024     		movs	r4, #0
 358 0006 0294     		str	r4, [sp, #8]
 359 0008 0423     		movs	r3, #4
 360 000a 0193     		str	r3, [sp, #4]
 361 000c 0094     		str	r4, [sp]
 362 000e 0223     		movs	r3, #2
 363 0010 0122     		movs	r2, #1
 364 0012 C821     		movs	r1, #200
 365 0014 0820     		movs	r0, #8
 366 0016 FFF7FEFF 		bl	system_init
 367              	.LVL11:
 109:Src/main.c    **** 	rcc_enableclk();
 368              		.loc 1 109 0
 369 001a FFF7FEFF 		bl	rcc_enableclk
 370              	.LVL12:
 110:Src/main.c    **** 	config_pin();
 371              		.loc 1 110 0
 372 001e FFF7FEFF 		bl	config_pin
 373              	.LVL13:
 111:Src/main.c    **** 	init_interrupt();
 374              		.loc 1 111 0
 375 0022 FFF7FEFF 		bl	init_interrupt
 376              	.LVL14:
 112:Src/main.c    **** 
 113:Src/main.c    **** 	xTaskCreate(taskTest1 , "idle_task1" , 128 ,NULL ,  1 , NULL);
 377              		.loc 1 113 0
 378 0026 0194     		str	r4, [sp, #4]
 379 0028 0125     		movs	r5, #1
 380 002a 0095     		str	r5, [sp]
 381 002c 2346     		mov	r3, r4
 382 002e 8022     		movs	r2, #128
 383 0030 0749     		ldr	r1, .L30
 384 0032 0848     		ldr	r0, .L30+4
 385 0034 FFF7FEFF 		bl	xTaskCreate
ARM GAS  E:\msys32\tmp\ccmkniDv.s 			page 10


 386              	.LVL15:
 114:Src/main.c    **** 	xTaskCreate(taskTest2 , "idle_task2" , 128 ,NULL ,  1 , NULL);
 387              		.loc 1 114 0
 388 0038 0194     		str	r4, [sp, #4]
 389 003a 0095     		str	r5, [sp]
 390 003c 2346     		mov	r3, r4
 391 003e 8022     		movs	r2, #128
 392 0040 0549     		ldr	r1, .L30+8
 393 0042 0648     		ldr	r0, .L30+12
 394 0044 FFF7FEFF 		bl	xTaskCreate
 395              	.LVL16:
 115:Src/main.c    **** 	vTaskStartScheduler();
 396              		.loc 1 115 0
 397 0048 FFF7FEFF 		bl	vTaskStartScheduler
 398              	.LVL17:
 399              	.L28:
 400 004c FEE7     		b	.L28
 401              	.L31:
 402 004e 00BF     		.align	2
 403              	.L30:
 404 0050 00000000 		.word	.LC0
 405 0054 00000000 		.word	taskTest1
 406 0058 0C000000 		.word	.LC1
 407 005c 00000000 		.word	taskTest2
 408              		.cfi_endproc
 409              	.LFE13:
 411              		.global	pxTask_receive
 412              		.global	pxTask
 413              		.section	.bss.pxTask,"aw",%nobits
 414              		.align	2
 417              	pxTask:
 418 0000 00000000 		.space	4
 419              		.section	.bss.pxTask_receive,"aw",%nobits
 420              		.align	2
 423              	pxTask_receive:
 424 0000 00000000 		.space	4
 425              		.section	.rodata.main.str1.4,"aMS",%progbits,1
 426              		.align	2
 427              	.LC0:
 428 0000 69646C65 		.ascii	"idle_task1\000"
 428      5F746173 
 428      6B3100
 429 000b 00       		.space	1
 430              	.LC1:
 431 000c 69646C65 		.ascii	"idle_task2\000"
 431      5F746173 
 431      6B3200
 432              		.text
 433              	.Letext0:
 434              		.file 2 "c:\\tools\\gcc7_2017-q4-major\\arm-none-eabi\\include\\machine\\_default_types.h"
 435              		.file 3 "c:\\tools\\gcc7_2017-q4-major\\arm-none-eabi\\include\\sys\\_stdint.h"
 436              		.file 4 "../FreeRTOS/Source/portable/GCC/ARM_CM4F/portmacro.h"
 437              		.file 5 "../FreeRTOS/Source/include/task.h"
 438              		.file 6 "E:/Users/VuHaiLong/Desktop/mbed/hocRTOS/mylib/mInc/mtype.h"
 439              		.file 7 "c:\\tools\\gcc7_2017-q4-major\\arm-none-eabi\\include\\sys\\lock.h"
 440              		.file 8 "c:\\tools\\gcc7_2017-q4-major\\arm-none-eabi\\include\\sys\\_types.h"
 441              		.file 9 "c:\\tools\\gcc7_2017-q4-major\\lib\\gcc\\arm-none-eabi\\7.2.1\\include\\stddef.h"
ARM GAS  E:\msys32\tmp\ccmkniDv.s 			page 11


 442              		.file 10 "c:\\tools\\gcc7_2017-q4-major\\arm-none-eabi\\include\\sys\\reent.h"
 443              		.file 11 "Inc/stm32f4xx_it.h"
 444              		.file 12 "c:\\tools\\gcc7_2017-q4-major\\arm-none-eabi\\include\\stdlib.h"
 445              		.file 13 "E:/Users/VuHaiLong/Desktop/mbed/hocRTOS/mylib/mInc/clock.h"
 446              		.file 14 "E:/Users/VuHaiLong/Desktop/mbed/hocRTOS/mylib/mInc/gpio.h"
 447              		.file 15 "E:/Users/VuHaiLong/Desktop/mbed/hocRTOS/mylib/mInc/const.h"
ARM GAS  E:\msys32\tmp\ccmkniDv.s 			page 12

