ARM GAS  E:\msys32\tmp\ccBPG76h.s 			page 1


   1              		.cpu cortex-m4
   2              		.eabi_attribute 27, 1
   3              		.eabi_attribute 28, 1
   4              		.eabi_attribute 20, 1
   5              		.eabi_attribute 21, 1
   6              		.eabi_attribute 23, 3
   7              		.eabi_attribute 24, 1
   8              		.eabi_attribute 25, 1
   9              		.eabi_attribute 26, 1
  10              		.eabi_attribute 30, 1
  11              		.eabi_attribute 34, 1
  12              		.eabi_attribute 18, 4
  13              		.file	"stm32f4xx_it.c"
  14              		.text
  15              	.Ltext0:
  16              		.cfi_sections	.debug_frame
  17              		.section	.text.NMI_Handler,"ax",%progbits
  18              		.align	1
  19              		.global	NMI_Handler
  20              		.syntax unified
  21              		.thumb
  22              		.thumb_func
  23              		.fpu fpv4-sp-d16
  25              	NMI_Handler:
  26              	.LFB5:
  27              		.file 1 "Src/stm32f4xx_it.c"
   1:Src/stm32f4xx_it.c **** #include "project.h"
   2:Src/stm32f4xx_it.c **** extern TaskHandle_t pxTask ;
   3:Src/stm32f4xx_it.c **** 
   4:Src/stm32f4xx_it.c **** 
   5:Src/stm32f4xx_it.c **** 
   6:Src/stm32f4xx_it.c **** void NMI_Handler(void)
   7:Src/stm32f4xx_it.c **** {
  28              		.loc 1 7 0
  29              		.cfi_startproc
  30              		@ args = 0, pretend = 0, frame = 0
  31              		@ frame_needed = 0, uses_anonymous_args = 0
  32              		@ link register save eliminated.
   8:Src/stm32f4xx_it.c **** }
  33              		.loc 1 8 0
  34 0000 7047     		bx	lr
  35              		.cfi_endproc
  36              	.LFE5:
  38              		.section	.text.HardFault_Handler,"ax",%progbits
  39              		.align	1
  40              		.global	HardFault_Handler
  41              		.syntax unified
  42              		.thumb
  43              		.thumb_func
  44              		.fpu fpv4-sp-d16
  46              	HardFault_Handler:
  47              	.LFB6:
   9:Src/stm32f4xx_it.c **** 
  10:Src/stm32f4xx_it.c **** void HardFault_Handler(void)
  11:Src/stm32f4xx_it.c **** {
  48              		.loc 1 11 0
  49              		.cfi_startproc
ARM GAS  E:\msys32\tmp\ccBPG76h.s 			page 2


  50              		@ Volatile: function does not return.
  51              		@ args = 0, pretend = 0, frame = 0
  52              		@ frame_needed = 0, uses_anonymous_args = 0
  53              		@ link register save eliminated.
  54              	.L3:
  55 0000 FEE7     		b	.L3
  56              		.cfi_endproc
  57              	.LFE6:
  59              		.section	.text.MemManage_Handler,"ax",%progbits
  60              		.align	1
  61              		.global	MemManage_Handler
  62              		.syntax unified
  63              		.thumb
  64              		.thumb_func
  65              		.fpu fpv4-sp-d16
  67              	MemManage_Handler:
  68              	.LFB7:
  12:Src/stm32f4xx_it.c ****   while (1)
  13:Src/stm32f4xx_it.c ****   {
  14:Src/stm32f4xx_it.c ****   }
  15:Src/stm32f4xx_it.c **** }
  16:Src/stm32f4xx_it.c **** void MemManage_Handler(void)
  17:Src/stm32f4xx_it.c **** {
  69              		.loc 1 17 0
  70              		.cfi_startproc
  71              		@ Volatile: function does not return.
  72              		@ args = 0, pretend = 0, frame = 0
  73              		@ frame_needed = 0, uses_anonymous_args = 0
  74              		@ link register save eliminated.
  75              	.L5:
  76 0000 FEE7     		b	.L5
  77              		.cfi_endproc
  78              	.LFE7:
  80              		.section	.text.BusFault_Handler,"ax",%progbits
  81              		.align	1
  82              		.global	BusFault_Handler
  83              		.syntax unified
  84              		.thumb
  85              		.thumb_func
  86              		.fpu fpv4-sp-d16
  88              	BusFault_Handler:
  89              	.LFB8:
  18:Src/stm32f4xx_it.c ****   while (1)
  19:Src/stm32f4xx_it.c ****   {
  20:Src/stm32f4xx_it.c ****   }
  21:Src/stm32f4xx_it.c **** }
  22:Src/stm32f4xx_it.c **** 
  23:Src/stm32f4xx_it.c **** void BusFault_Handler(void)
  24:Src/stm32f4xx_it.c **** {
  90              		.loc 1 24 0
  91              		.cfi_startproc
  92              		@ Volatile: function does not return.
  93              		@ args = 0, pretend = 0, frame = 0
  94              		@ frame_needed = 0, uses_anonymous_args = 0
  95              		@ link register save eliminated.
  96              	.L7:
  97 0000 FEE7     		b	.L7
ARM GAS  E:\msys32\tmp\ccBPG76h.s 			page 3


  98              		.cfi_endproc
  99              	.LFE8:
 101              		.section	.text.UsageFault_Handler,"ax",%progbits
 102              		.align	1
 103              		.global	UsageFault_Handler
 104              		.syntax unified
 105              		.thumb
 106              		.thumb_func
 107              		.fpu fpv4-sp-d16
 109              	UsageFault_Handler:
 110              	.LFB9:
  25:Src/stm32f4xx_it.c ****   while (1)
  26:Src/stm32f4xx_it.c ****   {
  27:Src/stm32f4xx_it.c ****   }
  28:Src/stm32f4xx_it.c **** 
  29:Src/stm32f4xx_it.c **** }
  30:Src/stm32f4xx_it.c **** 
  31:Src/stm32f4xx_it.c **** void UsageFault_Handler(void)
  32:Src/stm32f4xx_it.c **** {
 111              		.loc 1 32 0
 112              		.cfi_startproc
 113              		@ Volatile: function does not return.
 114              		@ args = 0, pretend = 0, frame = 0
 115              		@ frame_needed = 0, uses_anonymous_args = 0
 116              		@ link register save eliminated.
 117              	.L9:
 118 0000 FEE7     		b	.L9
 119              		.cfi_endproc
 120              	.LFE9:
 122              		.section	.text.DebugMon_Handler,"ax",%progbits
 123              		.align	1
 124              		.global	DebugMon_Handler
 125              		.syntax unified
 126              		.thumb
 127              		.thumb_func
 128              		.fpu fpv4-sp-d16
 130              	DebugMon_Handler:
 131              	.LFB10:
  33:Src/stm32f4xx_it.c ****   while (1)
  34:Src/stm32f4xx_it.c ****   {
  35:Src/stm32f4xx_it.c ****   }
  36:Src/stm32f4xx_it.c **** }
  37:Src/stm32f4xx_it.c **** 
  38:Src/stm32f4xx_it.c **** 
  39:Src/stm32f4xx_it.c **** void DebugMon_Handler(void)
  40:Src/stm32f4xx_it.c **** {
 132              		.loc 1 40 0
 133              		.cfi_startproc
 134              		@ args = 0, pretend = 0, frame = 0
 135              		@ frame_needed = 0, uses_anonymous_args = 0
 136              		@ link register save eliminated.
  41:Src/stm32f4xx_it.c **** }
 137              		.loc 1 41 0
 138 0000 7047     		bx	lr
 139              		.cfi_endproc
 140              	.LFE10:
 142              		.section	.text.mNVIC_SetPriority,"ax",%progbits
ARM GAS  E:\msys32\tmp\ccBPG76h.s 			page 4


 143              		.align	1
 144              		.global	mNVIC_SetPriority
 145              		.syntax unified
 146              		.thumb
 147              		.thumb_func
 148              		.fpu fpv4-sp-d16
 150              	mNVIC_SetPriority:
 151              	.LFB11:
  42:Src/stm32f4xx_it.c **** 
  43:Src/stm32f4xx_it.c **** 
  44:Src/stm32f4xx_it.c **** void mNVIC_SetPriority(IRQn_Type ipr , u32_t pri){
 152              		.loc 1 44 0
 153              		.cfi_startproc
 154              		@ args = 0, pretend = 0, frame = 0
 155              		@ frame_needed = 0, uses_anonymous_args = 0
 156              		@ link register save eliminated.
 157              	.LVL0:
  45:Src/stm32f4xx_it.c **** 	// stm32f4 su dung 4 bit cao 
  46:Src/stm32f4xx_it.c **** 	pri = pri << 4;
 158              		.loc 1 46 0
 159 0000 0901     		lsls	r1, r1, #4
 160              	.LVL1:
  47:Src/stm32f4xx_it.c **** 	// chia 4 .. stm32f4 chi dung 4 bit priority	 
  48:Src/stm32f4xx_it.c **** 	u32_t addr_ipr = (mNVIC_IPR(( (u32_t)ipr >> 2u ))) ; 
 161              		.loc 1 48 0
 162 0002 8308     		lsrs	r3, r0, #2
 163 0004 03F16053 		add	r3, r3, #939524096
 164 0008 03F56453 		add	r3, r3, #14592
 165 000c 9B00     		lsls	r3, r3, #2
 166              	.LVL2:
  49:Src/stm32f4xx_it.c **** 	u32_t temp_reg = read_reg(addr_ipr, ~0u);
 167              		.loc 1 49 0
 168 000e 1A68     		ldr	r2, [r3]
 169              	.LVL3:
  50:Src/stm32f4xx_it.c **** 	// tinh 1 trong 4 vi tri 
  51:Src/stm32f4xx_it.c **** 	temp_reg |=  ( (u32_t)pri  << (4 * (ipr >> 4 ))) ;
 170              		.loc 1 51 0
 171 0010 0011     		asrs	r0, r0, #4
 172              	.LVL4:
 173 0012 8000     		lsls	r0, r0, #2
 174 0014 01FA00F0 		lsl	r0, r1, r0
 175 0018 1043     		orrs	r0, r0, r2
 176              	.LVL5:
  52:Src/stm32f4xx_it.c **** 	write_reg(addr_ipr, temp_reg);
 177              		.loc 1 52 0
 178 001a 1860     		str	r0, [r3]
  53:Src/stm32f4xx_it.c **** 	 
  54:Src/stm32f4xx_it.c **** }
 179              		.loc 1 54 0
 180 001c 7047     		bx	lr
 181              		.cfi_endproc
 182              	.LFE11:
 184              		.section	.text.mNVIC_EnableIRQ,"ax",%progbits
 185              		.align	1
 186              		.global	mNVIC_EnableIRQ
 187              		.syntax unified
 188              		.thumb
ARM GAS  E:\msys32\tmp\ccBPG76h.s 			page 5


 189              		.thumb_func
 190              		.fpu fpv4-sp-d16
 192              	mNVIC_EnableIRQ:
 193              	.LFB12:
  55:Src/stm32f4xx_it.c **** void mNVIC_EnableIRQ(IRQn_Type irq){
 194              		.loc 1 55 0
 195              		.cfi_startproc
 196              		@ args = 0, pretend = 0, frame = 0
 197              		@ frame_needed = 0, uses_anonymous_args = 0
 198              		@ link register save eliminated.
 199              	.LVL6:
  56:Src/stm32f4xx_it.c **** 	// iser /32 ,%32
  57:Src/stm32f4xx_it.c **** 	u32_t addr_irq = mNVIC_ISER( ((u32_t)irq >> 5u) )  ;
 200              		.loc 1 57 0
 201 0000 4309     		lsrs	r3, r0, #5
 202 0002 03F13823 		add	r3, r3, #939538432
 203 0006 4033     		adds	r3, r3, #64
 204 0008 9B00     		lsls	r3, r3, #2
 205              	.LVL7:
  58:Src/stm32f4xx_it.c **** 	
  59:Src/stm32f4xx_it.c **** 	u32_t temp_reg = read_reg(addr_irq , ~0u);
 206              		.loc 1 59 0
 207 000a 1968     		ldr	r1, [r3]
 208              	.LVL8:
  60:Src/stm32f4xx_it.c **** 	temp_reg |=  (u32_t)(1UL << ((u32_t)irq & 0x1Fu )) ;
 209              		.loc 1 60 0
 210 000c 00F01F02 		and	r2, r0, #31
 211 0010 0120     		movs	r0, #1
 212              	.LVL9:
 213 0012 9040     		lsls	r0, r0, r2
 214 0014 0843     		orrs	r0, r0, r1
 215              	.LVL10:
  61:Src/stm32f4xx_it.c **** 	write_reg(addr_irq, temp_reg);
 216              		.loc 1 61 0
 217 0016 1860     		str	r0, [r3]
  62:Src/stm32f4xx_it.c **** 	
  63:Src/stm32f4xx_it.c **** }
 218              		.loc 1 63 0
 219 0018 7047     		bx	lr
 220              		.cfi_endproc
 221              	.LFE12:
 223              		.text
 224              	.Letext0:
 225              		.file 2 "../FreeRTOS/Source/include/task.h"
 226              		.file 3 "E:/Users/VuHaiLong/Desktop/mbed/hocRTOS/mylib/mInc/mtype.h"
 227              		.file 4 "E:/Users/VuHaiLong/Desktop/mbed/hocRTOS/mylib/mInc/const.h"
 228              		.file 5 "Inc/stm32f4xx_it.h"
ARM GAS  E:\msys32\tmp\ccBPG76h.s 			page 6

