ARM GAS  E:\msys32\tmp\ccjqagCj.s 			page 1


   1              		.cpu cortex-m4
   2              		.eabi_attribute 27, 1
   3              		.eabi_attribute 28, 1
   4              		.eabi_attribute 20, 1
   5              		.eabi_attribute 21, 1
   6              		.eabi_attribute 23, 3
   7              		.eabi_attribute 24, 1
   8              		.eabi_attribute 25, 1
   9              		.eabi_attribute 26, 1
  10              		.eabi_attribute 30, 1
  11              		.eabi_attribute 34, 1
  12              		.eabi_attribute 18, 4
  13              		.file	"stm32f4xx_it.c"
  14              		.text
  15              	.Ltext0:
  16              		.cfi_sections	.debug_frame
  17              		.section	.text.TIM2_IRQHandler,"ax",%progbits
  18              		.align	1
  19              		.global	TIM2_IRQHandler
  20              		.syntax unified
  21              		.thumb
  22              		.thumb_func
  23              		.fpu fpv4-sp-d16
  25              	TIM2_IRQHandler:
  26              	.LFB0:
  27              		.file 1 "Src/stm32f4xx_it.c"
   1:Src/stm32f4xx_it.c **** 
   2:Src/stm32f4xx_it.c **** #include "project.h"
   3:Src/stm32f4xx_it.c **** 
   4:Src/stm32f4xx_it.c **** volatile unsigned int led_state = 0;
   5:Src/stm32f4xx_it.c **** volatile unsigned char rx_data = 0;
   6:Src/stm32f4xx_it.c **** 
   7:Src/stm32f4xx_it.c **** 
   8:Src/stm32f4xx_it.c **** 
   9:Src/stm32f4xx_it.c **** void TIM2_IRQHandler(){
  28              		.loc 1 9 0
  29              		.cfi_startproc
  30              		@ args = 0, pretend = 0, frame = 0
  31              		@ frame_needed = 0, uses_anonymous_args = 0
  32 0000 08B5     		push	{r3, lr}
  33              	.LCFI0:
  34              		.cfi_def_cfa_offset 8
  35              		.cfi_offset 3, -8
  36              		.cfi_offset 14, -4
  10:Src/stm32f4xx_it.c ****  	unsigned temp_reg;
  11:Src/stm32f4xx_it.c **** 
  12:Src/stm32f4xx_it.c **** 	GPIO_TongglePin(mGPIOD , (mGPIO_PIN(12)) );
  37              		.loc 1 12 0
  38 0002 4FF48051 		mov	r1, #4096
  39 0006 0D48     		ldr	r0, .L5
  40 0008 FFF7FEFF 		bl	GPIO_TongglePin
  41              	.LVL0:
  13:Src/stm32f4xx_it.c **** 	//capture
  14:Src/stm32f4xx_it.c **** 	if(read_reg(mTIM_SR(mTIM2) , 2u) ){
  42              		.loc 1 14 0
  43 000c 0C4B     		ldr	r3, .L5+4
  44 000e 1B68     		ldr	r3, [r3]
ARM GAS  E:\msys32\tmp\ccjqagCj.s 			page 2


  45 0010 13F0020F 		tst	r3, #2
  46 0014 09D1     		bne	.L4
  47              	.L2:
  15:Src/stm32f4xx_it.c **** 		GPIO_TongglePin(mGPIOD , (mGPIO_PIN(14)) );
  16:Src/stm32f4xx_it.c **** 		//clear flag 
  17:Src/stm32f4xx_it.c **** 		write_reg(mTIM_SR(mTIM2) , 0u);	
  18:Src/stm32f4xx_it.c **** 	}
  19:Src/stm32f4xx_it.c **** 	
  20:Src/stm32f4xx_it.c ****     // clear interrupt flag
  21:Src/stm32f4xx_it.c **** 	temp_reg = read_reg(mTIM_SR(mTIM2) , ~(0x1u<<0));
  48              		.loc 1 21 0
  49 0016 0A4A     		ldr	r2, .L5+4
  50 0018 1368     		ldr	r3, [r2]
  51 001a 23F00103 		bic	r3, r3, #1
  52              	.LVL1:
  22:Src/stm32f4xx_it.c ****     write_reg(mTIM_SR(mTIM2) , temp_reg);
  53              		.loc 1 22 0
  54 001e 1360     		str	r3, [r2]
  23:Src/stm32f4xx_it.c ****     write_reg(mNVIC_ICPR , (1 << 28) );
  55              		.loc 1 23 0
  56 0020 084B     		ldr	r3, .L5+8
  57              	.LVL2:
  58 0022 4FF08052 		mov	r2, #268435456
  59              	.LVL3:
  60 0026 1A60     		str	r2, [r3]
  24:Src/stm32f4xx_it.c **** 
  25:Src/stm32f4xx_it.c **** }
  61              		.loc 1 25 0
  62 0028 08BD     		pop	{r3, pc}
  63              	.LVL4:
  64              	.L4:
  15:Src/stm32f4xx_it.c **** 		//clear flag 
  65              		.loc 1 15 0
  66 002a 4FF48041 		mov	r1, #16384
  67 002e 0348     		ldr	r0, .L5
  68 0030 FFF7FEFF 		bl	GPIO_TongglePin
  69              	.LVL5:
  17:Src/stm32f4xx_it.c **** 	}
  70              		.loc 1 17 0
  71 0034 024B     		ldr	r3, .L5+4
  72 0036 0022     		movs	r2, #0
  73 0038 1A60     		str	r2, [r3]
  74 003a ECE7     		b	.L2
  75              	.L6:
  76              		.align	2
  77              	.L5:
  78 003c 000C0240 		.word	1073875968
  79 0040 10000040 		.word	1073741840
  80 0044 80E200E0 		.word	-536812928
  81              		.cfi_endproc
  82              	.LFE0:
  84              		.section	.text.EXTI1_IRQHandler,"ax",%progbits
  85              		.align	1
  86              		.global	EXTI1_IRQHandler
  87              		.syntax unified
  88              		.thumb
  89              		.thumb_func
ARM GAS  E:\msys32\tmp\ccjqagCj.s 			page 3


  90              		.fpu fpv4-sp-d16
  92              	EXTI1_IRQHandler:
  93              	.LFB1:
  26:Src/stm32f4xx_it.c **** 
  27:Src/stm32f4xx_it.c **** void EXTI1_IRQHandler(){
  94              		.loc 1 27 0
  95              		.cfi_startproc
  96              		@ args = 0, pretend = 0, frame = 0
  97              		@ frame_needed = 0, uses_anonymous_args = 0
  98              		@ link register save eliminated.
  28:Src/stm32f4xx_it.c **** 	
  29:Src/stm32f4xx_it.c **** }
  99              		.loc 1 29 0
 100 0000 7047     		bx	lr
 101              		.cfi_endproc
 102              	.LFE1:
 104              		.section	.text.EXTI0_IRQHandler,"ax",%progbits
 105              		.align	1
 106              		.global	EXTI0_IRQHandler
 107              		.syntax unified
 108              		.thumb
 109              		.thumb_func
 110              		.fpu fpv4-sp-d16
 112              	EXTI0_IRQHandler:
 113              	.LFB2:
  30:Src/stm32f4xx_it.c **** void EXTI0_IRQHandler(){
 114              		.loc 1 30 0
 115              		.cfi_startproc
 116              		@ args = 0, pretend = 0, frame = 0
 117              		@ frame_needed = 0, uses_anonymous_args = 0
 118 0000 08B5     		push	{r3, lr}
 119              	.LCFI1:
 120              		.cfi_def_cfa_offset 8
 121              		.cfi_offset 3, -8
 122              		.cfi_offset 14, -4
  31:Src/stm32f4xx_it.c **** 	unsigned int temp_reg;
  32:Src/stm32f4xx_it.c **** 	
  33:Src/stm32f4xx_it.c **** 	GPIO_TongglePin(mGPIOD , mGPIO_PIN(15));
 123              		.loc 1 33 0
 124 0002 4FF40041 		mov	r1, #32768
 125 0006 0548     		ldr	r0, .L10
 126 0008 FFF7FEFF 		bl	GPIO_TongglePin
 127              	.LVL6:
  34:Src/stm32f4xx_it.c **** 	
  35:Src/stm32f4xx_it.c **** 	// xoa co ngat 
  36:Src/stm32f4xx_it.c **** 	temp_reg = (1 <<0) ;
  37:Src/stm32f4xx_it.c **** 	write_reg(mEXTI_PR , temp_reg );
 128              		.loc 1 37 0
 129 000c 044B     		ldr	r3, .L10+4
 130 000e 0122     		movs	r2, #1
 131 0010 1A60     		str	r2, [r3]
  38:Src/stm32f4xx_it.c **** 	write_reg(mNVIC_ICPR , (1 << 6) );
 132              		.loc 1 38 0
 133 0012 044B     		ldr	r3, .L10+8
 134 0014 4022     		movs	r2, #64
 135 0016 1A60     		str	r2, [r3]
  39:Src/stm32f4xx_it.c **** 	
ARM GAS  E:\msys32\tmp\ccjqagCj.s 			page 4


  40:Src/stm32f4xx_it.c **** }
 136              		.loc 1 40 0
 137 0018 08BD     		pop	{r3, pc}
 138              	.L11:
 139 001a 00BF     		.align	2
 140              	.L10:
 141 001c 000C0240 		.word	1073875968
 142 0020 143C0140 		.word	1073822740
 143 0024 80E200E0 		.word	-536812928
 144              		.cfi_endproc
 145              	.LFE2:
 147              		.section	.text.DMA2_Stream2_IRQHandler,"ax",%progbits
 148              		.align	1
 149              		.global	DMA2_Stream2_IRQHandler
 150              		.syntax unified
 151              		.thumb
 152              		.thumb_func
 153              		.fpu fpv4-sp-d16
 155              	DMA2_Stream2_IRQHandler:
 156              	.LFB3:
  41:Src/stm32f4xx_it.c **** void DMA2_Stream2_IRQHandler(){
 157              		.loc 1 41 0
 158              		.cfi_startproc
 159              		@ args = 0, pretend = 0, frame = 0
 160              		@ frame_needed = 0, uses_anonymous_args = 0
 161 0000 08B5     		push	{r3, lr}
 162              	.LCFI2:
 163              		.cfi_def_cfa_offset 8
 164              		.cfi_offset 3, -8
 165              		.cfi_offset 14, -4
  42:Src/stm32f4xx_it.c **** 	
  43:Src/stm32f4xx_it.c **** 		usart_send_byte(rx_data);
 166              		.loc 1 43 0
 167 0002 044B     		ldr	r3, .L14
 168 0004 1878     		ldrb	r0, [r3]	@ zero_extendqisi2
 169 0006 FFF7FEFF 		bl	usart_send_byte
 170              	.LVL7:
  44:Src/stm32f4xx_it.c **** 		//clear flag 
  45:Src/stm32f4xx_it.c **** 		write_reg(mDMA_LIFCR(mDMA2) , (1U << 21));
 171              		.loc 1 45 0
 172 000a 034B     		ldr	r3, .L14+4
 173 000c 4FF40012 		mov	r2, #2097152
 174 0010 1A60     		str	r2, [r3]
  46:Src/stm32f4xx_it.c **** 
  47:Src/stm32f4xx_it.c **** }
 175              		.loc 1 47 0
 176 0012 08BD     		pop	{r3, pc}
 177              	.L15:
 178              		.align	2
 179              	.L14:
 180 0014 00000000 		.word	.LANCHOR0
 181 0018 08640240 		.word	1073898504
 182              		.cfi_endproc
 183              	.LFE3:
 185              		.section	.text.USART1_IRQHandler,"ax",%progbits
 186              		.align	1
 187              		.global	USART1_IRQHandler
ARM GAS  E:\msys32\tmp\ccjqagCj.s 			page 5


 188              		.syntax unified
 189              		.thumb
 190              		.thumb_func
 191              		.fpu fpv4-sp-d16
 193              	USART1_IRQHandler:
 194              	.LFB4:
  48:Src/stm32f4xx_it.c **** void USART1_IRQHandler(void)
  49:Src/stm32f4xx_it.c **** {
 195              		.loc 1 49 0
 196              		.cfi_startproc
 197              		@ args = 0, pretend = 0, frame = 8
 198              		@ frame_needed = 0, uses_anonymous_args = 0
 199              		@ link register save eliminated.
 200 0000 82B0     		sub	sp, sp, #8
 201              	.LCFI3:
 202              		.cfi_def_cfa_offset 8
  50:Src/stm32f4xx_it.c ****     volatile unsigned int temp;
  51:Src/stm32f4xx_it.c **** 	unsigned  int temp_reg;
  52:Src/stm32f4xx_it.c ****     
  53:Src/stm32f4xx_it.c ****     temp = read_reg(mUSART_SR(mUSART1), 1 << 6);
 203              		.loc 1 53 0
 204 0002 074B     		ldr	r3, .L19
 205 0004 1B68     		ldr	r3, [r3]
 206 0006 03F04003 		and	r3, r3, #64
 207 000a 0193     		str	r3, [sp, #4]
  54:Src/stm32f4xx_it.c ****     if (0 != temp) /* Tx - TC flag */
 208              		.loc 1 54 0
 209 000c 019B     		ldr	r3, [sp, #4]
 210 000e 23B1     		cbz	r3, .L16
  55:Src/stm32f4xx_it.c ****     {
  56:Src/stm32f4xx_it.c **** 		// clear flag tc
  57:Src/stm32f4xx_it.c **** 		temp_reg = read_reg(mUSART_SR(mUSART1) , ~(1u << 6));
 211              		.loc 1 57 0
 212 0010 034A     		ldr	r2, .L19
 213 0012 1368     		ldr	r3, [r2]
 214 0014 23F04003 		bic	r3, r3, #64
 215              	.LVL8:
  58:Src/stm32f4xx_it.c **** 		temp_reg |= (0u << 6);
  59:Src/stm32f4xx_it.c ****         write_reg(mUSART_SR(mUSART1), temp_reg);
 216              		.loc 1 59 0
 217 0018 1360     		str	r3, [r2]
 218              	.LVL9:
 219              	.L16:
  60:Src/stm32f4xx_it.c **** 		
  61:Src/stm32f4xx_it.c ****     }
  62:Src/stm32f4xx_it.c **** 
  63:Src/stm32f4xx_it.c **** }
 220              		.loc 1 63 0
 221 001a 02B0     		add	sp, sp, #8
 222              	.LCFI4:
 223              		.cfi_def_cfa_offset 0
 224              		@ sp needed
 225 001c 7047     		bx	lr
 226              	.L20:
 227 001e 00BF     		.align	2
 228              	.L19:
 229 0020 00100140 		.word	1073811456
ARM GAS  E:\msys32\tmp\ccjqagCj.s 			page 6


 230              		.cfi_endproc
 231              	.LFE4:
 233              		.section	.text.NMI_Handler,"ax",%progbits
 234              		.align	1
 235              		.global	NMI_Handler
 236              		.syntax unified
 237              		.thumb
 238              		.thumb_func
 239              		.fpu fpv4-sp-d16
 241              	NMI_Handler:
 242              	.LFB5:
  64:Src/stm32f4xx_it.c **** 
  65:Src/stm32f4xx_it.c **** void NMI_Handler(void)
  66:Src/stm32f4xx_it.c **** {
 243              		.loc 1 66 0
 244              		.cfi_startproc
 245              		@ args = 0, pretend = 0, frame = 0
 246              		@ frame_needed = 0, uses_anonymous_args = 0
 247              		@ link register save eliminated.
  67:Src/stm32f4xx_it.c **** }
 248              		.loc 1 67 0
 249 0000 7047     		bx	lr
 250              		.cfi_endproc
 251              	.LFE5:
 253              		.section	.text.HardFault_Handler,"ax",%progbits
 254              		.align	1
 255              		.global	HardFault_Handler
 256              		.syntax unified
 257              		.thumb
 258              		.thumb_func
 259              		.fpu fpv4-sp-d16
 261              	HardFault_Handler:
 262              	.LFB6:
  68:Src/stm32f4xx_it.c **** 
  69:Src/stm32f4xx_it.c **** void HardFault_Handler(void)
  70:Src/stm32f4xx_it.c **** {
 263              		.loc 1 70 0
 264              		.cfi_startproc
 265              		@ Volatile: function does not return.
 266              		@ args = 0, pretend = 0, frame = 0
 267              		@ frame_needed = 0, uses_anonymous_args = 0
 268              		@ link register save eliminated.
 269              	.L23:
 270 0000 FEE7     		b	.L23
 271              		.cfi_endproc
 272              	.LFE6:
 274              		.section	.text.MemManage_Handler,"ax",%progbits
 275              		.align	1
 276              		.global	MemManage_Handler
 277              		.syntax unified
 278              		.thumb
 279              		.thumb_func
 280              		.fpu fpv4-sp-d16
 282              	MemManage_Handler:
 283              	.LFB7:
  71:Src/stm32f4xx_it.c ****   while (1)
  72:Src/stm32f4xx_it.c ****   {
ARM GAS  E:\msys32\tmp\ccjqagCj.s 			page 7


  73:Src/stm32f4xx_it.c ****   }
  74:Src/stm32f4xx_it.c **** }
  75:Src/stm32f4xx_it.c **** void MemManage_Handler(void)
  76:Src/stm32f4xx_it.c **** {
 284              		.loc 1 76 0
 285              		.cfi_startproc
 286              		@ Volatile: function does not return.
 287              		@ args = 0, pretend = 0, frame = 0
 288              		@ frame_needed = 0, uses_anonymous_args = 0
 289              		@ link register save eliminated.
 290              	.L25:
 291 0000 FEE7     		b	.L25
 292              		.cfi_endproc
 293              	.LFE7:
 295              		.section	.text.BusFault_Handler,"ax",%progbits
 296              		.align	1
 297              		.global	BusFault_Handler
 298              		.syntax unified
 299              		.thumb
 300              		.thumb_func
 301              		.fpu fpv4-sp-d16
 303              	BusFault_Handler:
 304              	.LFB8:
  77:Src/stm32f4xx_it.c ****   while (1)
  78:Src/stm32f4xx_it.c ****   {
  79:Src/stm32f4xx_it.c ****   }
  80:Src/stm32f4xx_it.c **** }
  81:Src/stm32f4xx_it.c **** 
  82:Src/stm32f4xx_it.c **** void BusFault_Handler(void)
  83:Src/stm32f4xx_it.c **** {
 305              		.loc 1 83 0
 306              		.cfi_startproc
 307              		@ Volatile: function does not return.
 308              		@ args = 0, pretend = 0, frame = 0
 309              		@ frame_needed = 0, uses_anonymous_args = 0
 310              		@ link register save eliminated.
 311              	.L27:
 312 0000 FEE7     		b	.L27
 313              		.cfi_endproc
 314              	.LFE8:
 316              		.section	.text.UsageFault_Handler,"ax",%progbits
 317              		.align	1
 318              		.global	UsageFault_Handler
 319              		.syntax unified
 320              		.thumb
 321              		.thumb_func
 322              		.fpu fpv4-sp-d16
 324              	UsageFault_Handler:
 325              	.LFB9:
  84:Src/stm32f4xx_it.c ****   while (1)
  85:Src/stm32f4xx_it.c ****   {
  86:Src/stm32f4xx_it.c ****   }
  87:Src/stm32f4xx_it.c **** 
  88:Src/stm32f4xx_it.c **** }
  89:Src/stm32f4xx_it.c **** 
  90:Src/stm32f4xx_it.c **** void UsageFault_Handler(void)
  91:Src/stm32f4xx_it.c **** {
ARM GAS  E:\msys32\tmp\ccjqagCj.s 			page 8


 326              		.loc 1 91 0
 327              		.cfi_startproc
 328              		@ Volatile: function does not return.
 329              		@ args = 0, pretend = 0, frame = 0
 330              		@ frame_needed = 0, uses_anonymous_args = 0
 331              		@ link register save eliminated.
 332              	.L29:
 333 0000 FEE7     		b	.L29
 334              		.cfi_endproc
 335              	.LFE9:
 337              		.section	.text.SVC_Handler,"ax",%progbits
 338              		.align	1
 339              		.global	SVC_Handler
 340              		.syntax unified
 341              		.thumb
 342              		.thumb_func
 343              		.fpu fpv4-sp-d16
 345              	SVC_Handler:
 346              	.LFB10:
  92:Src/stm32f4xx_it.c ****   while (1)
  93:Src/stm32f4xx_it.c ****   {
  94:Src/stm32f4xx_it.c ****   }
  95:Src/stm32f4xx_it.c **** }
  96:Src/stm32f4xx_it.c **** void SVC_Handler(void)
  97:Src/stm32f4xx_it.c **** {
 347              		.loc 1 97 0
 348              		.cfi_startproc
 349              		@ args = 0, pretend = 0, frame = 0
 350              		@ frame_needed = 0, uses_anonymous_args = 0
 351              		@ link register save eliminated.
  98:Src/stm32f4xx_it.c **** }
 352              		.loc 1 98 0
 353 0000 7047     		bx	lr
 354              		.cfi_endproc
 355              	.LFE10:
 357              		.section	.text.DebugMon_Handler,"ax",%progbits
 358              		.align	1
 359              		.global	DebugMon_Handler
 360              		.syntax unified
 361              		.thumb
 362              		.thumb_func
 363              		.fpu fpv4-sp-d16
 365              	DebugMon_Handler:
 366              	.LFB11:
  99:Src/stm32f4xx_it.c **** 
 100:Src/stm32f4xx_it.c **** void DebugMon_Handler(void)
 101:Src/stm32f4xx_it.c **** {
 367              		.loc 1 101 0
 368              		.cfi_startproc
 369              		@ args = 0, pretend = 0, frame = 0
 370              		@ frame_needed = 0, uses_anonymous_args = 0
 371              		@ link register save eliminated.
 102:Src/stm32f4xx_it.c **** }
 372              		.loc 1 102 0
 373 0000 7047     		bx	lr
 374              		.cfi_endproc
 375              	.LFE11:
ARM GAS  E:\msys32\tmp\ccjqagCj.s 			page 9


 377              		.section	.text.PendSV_Handler,"ax",%progbits
 378              		.align	1
 379              		.global	PendSV_Handler
 380              		.syntax unified
 381              		.thumb
 382              		.thumb_func
 383              		.fpu fpv4-sp-d16
 385              	PendSV_Handler:
 386              	.LFB12:
 103:Src/stm32f4xx_it.c **** 
 104:Src/stm32f4xx_it.c **** void PendSV_Handler(void)
 105:Src/stm32f4xx_it.c **** {
 387              		.loc 1 105 0
 388              		.cfi_startproc
 389              		@ args = 0, pretend = 0, frame = 0
 390              		@ frame_needed = 0, uses_anonymous_args = 0
 391              		@ link register save eliminated.
 106:Src/stm32f4xx_it.c **** }
 392              		.loc 1 106 0
 393 0000 7047     		bx	lr
 394              		.cfi_endproc
 395              	.LFE12:
 397              		.section	.text.SysTick_Handler,"ax",%progbits
 398              		.align	1
 399              		.global	SysTick_Handler
 400              		.syntax unified
 401              		.thumb
 402              		.thumb_func
 403              		.fpu fpv4-sp-d16
 405              	SysTick_Handler:
 406              	.LFB13:
 107:Src/stm32f4xx_it.c **** 
 108:Src/stm32f4xx_it.c **** void SysTick_Handler(void)
 109:Src/stm32f4xx_it.c **** {
 407              		.loc 1 109 0
 408              		.cfi_startproc
 409              		@ args = 0, pretend = 0, frame = 0
 410              		@ frame_needed = 0, uses_anonymous_args = 0
 411              		@ link register save eliminated.
 110:Src/stm32f4xx_it.c **** }
 412              		.loc 1 110 0
 413 0000 7047     		bx	lr
 414              		.cfi_endproc
 415              	.LFE13:
 417              		.section	.text.mNVIC_SetPriority,"ax",%progbits
 418              		.align	1
 419              		.global	mNVIC_SetPriority
 420              		.syntax unified
 421              		.thumb
 422              		.thumb_func
 423              		.fpu fpv4-sp-d16
 425              	mNVIC_SetPriority:
 426              	.LFB14:
 111:Src/stm32f4xx_it.c **** void mNVIC_SetPriority(IRQn_Type ipr , u32_t pri){
 427              		.loc 1 111 0
 428              		.cfi_startproc
 429              		@ args = 0, pretend = 0, frame = 0
ARM GAS  E:\msys32\tmp\ccjqagCj.s 			page 10


 430              		@ frame_needed = 0, uses_anonymous_args = 0
 431              		@ link register save eliminated.
 432              	.LVL10:
 112:Src/stm32f4xx_it.c **** 	// chia 4 .. stm32f4 chi dung 4 bit priority	 
 113:Src/stm32f4xx_it.c **** 	u32_t addr_ipr = (mNVIC_IPR(( (u32_t)ipr >> 2u ))) ;
 433              		.loc 1 113 0
 434 0000 8008     		lsrs	r0, r0, #2
 435              	.LVL11:
 436 0002 00F16050 		add	r0, r0, #939524096
 437 0006 00F56450 		add	r0, r0, #14592
 438 000a 8000     		lsls	r0, r0, #2
 439              	.LVL12:
 114:Src/stm32f4xx_it.c **** 	u32_t temp_reg = read_reg(addr_ipr, ~0u);
 440              		.loc 1 114 0
 441 000c 0368     		ldr	r3, [r0]
 442              	.LVL13:
 115:Src/stm32f4xx_it.c **** 	temp_reg |=  ( ((u32_t)pri  & 0xFFu ) << 4u ) ;
 443              		.loc 1 115 0
 444 000e 0901     		lsls	r1, r1, #4
 445              	.LVL14:
 446 0010 01F47F61 		and	r1, r1, #4080
 447 0014 1943     		orrs	r1, r1, r3
 448              	.LVL15:
 116:Src/stm32f4xx_it.c **** 	write_reg(addr_ipr, temp_reg);
 449              		.loc 1 116 0
 450 0016 0160     		str	r1, [r0]
 117:Src/stm32f4xx_it.c **** 	 
 118:Src/stm32f4xx_it.c **** }
 451              		.loc 1 118 0
 452 0018 7047     		bx	lr
 453              		.cfi_endproc
 454              	.LFE14:
 456              		.section	.text.mNVIC_EnableIRQ,"ax",%progbits
 457              		.align	1
 458              		.global	mNVIC_EnableIRQ
 459              		.syntax unified
 460              		.thumb
 461              		.thumb_func
 462              		.fpu fpv4-sp-d16
 464              	mNVIC_EnableIRQ:
 465              	.LFB15:
 119:Src/stm32f4xx_it.c **** void mNVIC_EnableIRQ(IRQn_Type irq){
 466              		.loc 1 119 0
 467              		.cfi_startproc
 468              		@ args = 0, pretend = 0, frame = 0
 469              		@ frame_needed = 0, uses_anonymous_args = 0
 470              		@ link register save eliminated.
 471              	.LVL16:
 120:Src/stm32f4xx_it.c **** 	// iser /32 ,%32
 121:Src/stm32f4xx_it.c **** 	u32_t addr_irq = mNVIC_ISER( ((u32_t)irq >> 5u) )  ;
 472              		.loc 1 121 0
 473 0000 4309     		lsrs	r3, r0, #5
 474 0002 03F13823 		add	r3, r3, #939538432
 475 0006 4033     		adds	r3, r3, #64
 476 0008 9B00     		lsls	r3, r3, #2
 477              	.LVL17:
 122:Src/stm32f4xx_it.c **** 	
ARM GAS  E:\msys32\tmp\ccjqagCj.s 			page 11


 123:Src/stm32f4xx_it.c **** 	u32_t temp_reg = read_reg(addr_irq , ~0u);
 478              		.loc 1 123 0
 479 000a 1968     		ldr	r1, [r3]
 480              	.LVL18:
 124:Src/stm32f4xx_it.c **** 	temp_reg |=  (u32_t)(1UL << ((u32_t)irq & 0x1Fu )) ;
 481              		.loc 1 124 0
 482 000c 00F01F02 		and	r2, r0, #31
 483 0010 0120     		movs	r0, #1
 484              	.LVL19:
 485 0012 9040     		lsls	r0, r0, r2
 486 0014 0843     		orrs	r0, r0, r1
 487              	.LVL20:
 125:Src/stm32f4xx_it.c **** 	write_reg(addr_irq, temp_reg);
 488              		.loc 1 125 0
 489 0016 1860     		str	r0, [r3]
 126:Src/stm32f4xx_it.c **** 	
 127:Src/stm32f4xx_it.c **** }
 490              		.loc 1 127 0
 491 0018 7047     		bx	lr
 492              		.cfi_endproc
 493              	.LFE15:
 495              		.section	.text.init_interrupt,"ax",%progbits
 496              		.align	1
 497              		.global	init_interrupt
 498              		.syntax unified
 499              		.thumb
 500              		.thumb_func
 501              		.fpu fpv4-sp-d16
 503              	init_interrupt:
 504              	.LFB16:
 128:Src/stm32f4xx_it.c **** void init_interrupt( ){
 505              		.loc 1 128 0
 506              		.cfi_startproc
 507              		@ args = 0, pretend = 0, frame = 0
 508              		@ frame_needed = 0, uses_anonymous_args = 0
 509 0000 08B5     		push	{r3, lr}
 510              	.LCFI5:
 511              		.cfi_def_cfa_offset 8
 512              		.cfi_offset 3, -8
 513              		.cfi_offset 14, -4
 129:Src/stm32f4xx_it.c **** 	
 130:Src/stm32f4xx_it.c **** 	unsigned int temp_reg;
 131:Src/stm32f4xx_it.c **** //mEXTI_IMR enable 2 interrupt EXTI0 , EXTI1
 132:Src/stm32f4xx_it.c **** 	temp_reg = read_reg(mEXTI_IMR , ~(0x03<< 0));
 514              		.loc 1 132 0
 515 0002 194A     		ldr	r2, .L38
 516 0004 1368     		ldr	r3, [r2]
 517              	.LVL21:
 133:Src/stm32f4xx_it.c **** 	temp_reg  = temp_reg | (0x03<< 0 );
 518              		.loc 1 133 0
 519 0006 43F00303 		orr	r3, r3, #3
 520              	.LVL22:
 134:Src/stm32f4xx_it.c **** 	write_reg(mEXTI_IMR , temp_reg );
 521              		.loc 1 134 0
 522 000a 1360     		str	r3, [r2]
 135:Src/stm32f4xx_it.c **** 	
 136:Src/stm32f4xx_it.c **** 	
ARM GAS  E:\msys32\tmp\ccjqagCj.s 			page 12


 137:Src/stm32f4xx_it.c **** 	/////////////////////////////
 138:Src/stm32f4xx_it.c **** 	//raising for button1 
 139:Src/stm32f4xx_it.c **** 	temp_reg = read_reg(mEXTI_RTSR , ~(1<< 0));
 523              		.loc 1 139 0
 524 000c 0832     		adds	r2, r2, #8
 525 000e 1368     		ldr	r3, [r2]
 526              	.LVL23:
 140:Src/stm32f4xx_it.c **** 	temp_reg  = temp_reg | (1<< 0 );
 141:Src/stm32f4xx_it.c **** 	write_reg(mEXTI_RTSR , temp_reg );
 142:Src/stm32f4xx_it.c **** 	
 143:Src/stm32f4xx_it.c **** 	// raising for button1
 144:Src/stm32f4xx_it.c **** 	temp_reg = read_reg(mEXTI_RTSR , ~(1u<< 1));
 145:Src/stm32f4xx_it.c **** 	temp_reg  = temp_reg | (1u << 1 );
 527              		.loc 1 145 0
 528 0010 43F00303 		orr	r3, r3, #3
 529              	.LVL24:
 146:Src/stm32f4xx_it.c **** 	write_reg(mEXTI_RTSR , temp_reg );
 530              		.loc 1 146 0
 531 0014 1360     		str	r3, [r2]
 147:Src/stm32f4xx_it.c **** 	
 148:Src/stm32f4xx_it.c **** 	/////////////////////////////
 149:Src/stm32f4xx_it.c **** // syscfg
 150:Src/stm32f4xx_it.c **** 	
 151:Src/stm32f4xx_it.c **** 	//FOR EXTI0
 152:Src/stm32f4xx_it.c **** 	temp_reg = read_reg(mSYSCFG_EXTICR1 , ~(0x0F<< 0));
 532              		.loc 1 152 0
 533 0016 A2F58062 		sub	r2, r2, #1024
 534 001a 1368     		ldr	r3, [r2]
 535              	.LVL25:
 153:Src/stm32f4xx_it.c **** 	temp_reg  = temp_reg | (0 << 0 );
 154:Src/stm32f4xx_it.c **** 	write_reg(mSYSCFG_EXTICR1 , temp_reg );
 155:Src/stm32f4xx_it.c **** 	
 156:Src/stm32f4xx_it.c **** 	//FOR EXTI1
 157:Src/stm32f4xx_it.c **** 	temp_reg = read_reg(mSYSCFG_EXTICR1 , ~(0x0F<< 4));
 536              		.loc 1 157 0
 537 001c 23F0FF03 		bic	r3, r3, #255
 538              	.LVL26:
 158:Src/stm32f4xx_it.c **** 	temp_reg  = temp_reg | (0 << 4 );
 159:Src/stm32f4xx_it.c **** 	write_reg(mSYSCFG_EXTICR1 , temp_reg );
 539              		.loc 1 159 0
 540 0020 1360     		str	r3, [r2]
 160:Src/stm32f4xx_it.c **** 	
 161:Src/stm32f4xx_it.c **** 	//////////////////////////////
 162:Src/stm32f4xx_it.c **** 	
 163:Src/stm32f4xx_it.c **** //NVIC	
 164:Src/stm32f4xx_it.c **** 	mNVIC_SetPriority(EXTI0_IRQn , 15);
 541              		.loc 1 164 0
 542 0022 0F21     		movs	r1, #15
 543 0024 0620     		movs	r0, #6
 544 0026 FFF7FEFF 		bl	mNVIC_SetPriority
 545              	.LVL27:
 165:Src/stm32f4xx_it.c **** 	mNVIC_SetPriority(EXTI1_IRQn , 15);
 546              		.loc 1 165 0
 547 002a 0F21     		movs	r1, #15
 548 002c 0720     		movs	r0, #7
 549 002e FFF7FEFF 		bl	mNVIC_SetPriority
 550              	.LVL28:
ARM GAS  E:\msys32\tmp\ccjqagCj.s 			page 13


 166:Src/stm32f4xx_it.c **** 	
 167:Src/stm32f4xx_it.c **** 	mNVIC_EnableIRQ(EXTI0_IRQn);
 551              		.loc 1 167 0
 552 0032 0620     		movs	r0, #6
 553 0034 FFF7FEFF 		bl	mNVIC_EnableIRQ
 554              	.LVL29:
 168:Src/stm32f4xx_it.c **** 	mNVIC_EnableIRQ(EXTI1_IRQn);
 555              		.loc 1 168 0
 556 0038 0720     		movs	r0, #7
 557 003a FFF7FEFF 		bl	mNVIC_EnableIRQ
 558              	.LVL30:
 169:Src/stm32f4xx_it.c **** 
 170:Src/stm32f4xx_it.c **** //  	NEW FOR DMA	
 171:Src/stm32f4xx_it.c **** 	mNVIC_SetPriority(DMA2_Stream2_IRQn , 15);
 559              		.loc 1 171 0
 560 003e 0F21     		movs	r1, #15
 561 0040 3A20     		movs	r0, #58
 562 0042 FFF7FEFF 		bl	mNVIC_SetPriority
 563              	.LVL31:
 172:Src/stm32f4xx_it.c **** 	
 173:Src/stm32f4xx_it.c **** 	mNVIC_EnableIRQ(DMA2_Stream2_IRQn);	
 564              		.loc 1 173 0
 565 0046 3A20     		movs	r0, #58
 566 0048 FFF7FEFF 		bl	mNVIC_EnableIRQ
 567              	.LVL32:
 174:Src/stm32f4xx_it.c **** 	
 175:Src/stm32f4xx_it.c **** 	
 176:Src/stm32f4xx_it.c **** 	
 177:Src/stm32f4xx_it.c **** 	//////////////////////////////
 178:Src/stm32f4xx_it.c **** 	/* usart1 */
 179:Src/stm32f4xx_it.c **** 
 180:Src/stm32f4xx_it.c ****     /* Tx interrupt */
 181:Src/stm32f4xx_it.c ****     temp_reg = read_reg(mUSART_CR1(mUSART1), ~(1 << 6));
 568              		.loc 1 181 0
 569 004c 074A     		ldr	r2, .L38+4
 570 004e 1368     		ldr	r3, [r2]
 571              	.LVL33:
 182:Src/stm32f4xx_it.c ****     temp_reg |= (1 << 6);
 183:Src/stm32f4xx_it.c ****     write_reg(mUSART_CR1(mUSART1), temp_reg);
 184:Src/stm32f4xx_it.c **** 
 185:Src/stm32f4xx_it.c ****     /* Rx interrupt - RXNEIE */
 186:Src/stm32f4xx_it.c ****     temp_reg = read_reg(mUSART_CR1(mUSART1), ~(1 << 5));
 187:Src/stm32f4xx_it.c ****     temp_reg |= (1 << 5);
 572              		.loc 1 187 0
 573 0050 43F06003 		orr	r3, r3, #96
 574              	.LVL34:
 188:Src/stm32f4xx_it.c ****     write_reg(mUSART_CR1(mUSART1), temp_reg);
 575              		.loc 1 188 0
 576 0054 1360     		str	r3, [r2]
 189:Src/stm32f4xx_it.c ****     
 190:Src/stm32f4xx_it.c **** 	mNVIC_SetPriority(USART1_IRQn , 10);
 577              		.loc 1 190 0
 578 0056 0A21     		movs	r1, #10
 579 0058 2520     		movs	r0, #37
 580 005a FFF7FEFF 		bl	mNVIC_SetPriority
 581              	.LVL35:
 191:Src/stm32f4xx_it.c **** 	mNVIC_EnableIRQ(USART1_IRQn);
ARM GAS  E:\msys32\tmp\ccjqagCj.s 			page 14


 582              		.loc 1 191 0
 583 005e 2520     		movs	r0, #37
 584 0060 FFF7FEFF 		bl	mNVIC_EnableIRQ
 585              	.LVL36:
 192:Src/stm32f4xx_it.c **** 
 193:Src/stm32f4xx_it.c ****     asm("cpsie i") ;	
 586              		.loc 1 193 0
 587              		.syntax unified
 588              	@ 193 "Src/stm32f4xx_it.c" 1
 589 0064 62B6     		cpsie i
 590              	@ 0 "" 2
 194:Src/stm32f4xx_it.c **** 	
 195:Src/stm32f4xx_it.c **** }
 591              		.loc 1 195 0
 592              		.thumb
 593              		.syntax unified
 594 0066 08BD     		pop	{r3, pc}
 595              	.L39:
 596              		.align	2
 597              	.L38:
 598 0068 003C0140 		.word	1073822720
 599 006c 0C100140 		.word	1073811468
 600              		.cfi_endproc
 601              	.LFE16:
 603              		.global	rx_data
 604              		.global	led_state
 605              		.section	.bss.led_state,"aw",%nobits
 606              		.align	2
 609              	led_state:
 610 0000 00000000 		.space	4
 611              		.section	.bss.rx_data,"aw",%nobits
 612              		.set	.LANCHOR0,. + 0
 615              	rx_data:
 616 0000 00       		.space	1
 617              		.text
 618              	.Letext0:
 619              		.file 2 "E:/Users/VuHaiLong/Documents/stm/mylib/mInc/mtype.h"
 620              		.file 3 "E:/Users/VuHaiLong/Documents/stm/mylib/mInc/const.h"
 621              		.file 4 "Inc/stm32f4xx_it.h"
 622              		.file 5 "E:/Users/VuHaiLong/Documents/stm/mylib/mInc/uart.h"
 623              		.file 6 "E:/Users/VuHaiLong/Documents/stm/mylib/mInc/gpio.h"
ARM GAS  E:\msys32\tmp\ccjqagCj.s 			page 15

