ARM GAS  E:\msys32\tmp\ccRAKIuE.s 			page 1


   1              		.cpu cortex-m4
   2              		.eabi_attribute 27, 1
   3              		.eabi_attribute 28, 1
   4              		.eabi_attribute 20, 1
   5              		.eabi_attribute 21, 1
   6              		.eabi_attribute 23, 3
   7              		.eabi_attribute 24, 1
   8              		.eabi_attribute 25, 1
   9              		.eabi_attribute 26, 1
  10              		.eabi_attribute 30, 1
  11              		.eabi_attribute 34, 1
  12              		.eabi_attribute 18, 4
  13              		.file	"stm32f4xx_it.c"
  14              		.text
  15              	.Ltext0:
  16              		.cfi_sections	.debug_frame
  17              		.section	.text.TIM2_IRQHandler,"ax",%progbits
  18              		.align	1
  19              		.global	TIM2_IRQHandler
  20              		.syntax unified
  21              		.thumb
  22              		.thumb_func
  23              		.fpu fpv4-sp-d16
  25              	TIM2_IRQHandler:
  26              	.LFB0:
  27              		.file 1 "Src/stm32f4xx_it.c"
   1:Src/stm32f4xx_it.c **** #include "project.h"
   2:Src/stm32f4xx_it.c **** u32_t t1 , t2, t;
   3:Src/stm32f4xx_it.c **** void TIM2_IRQHandler(){
  28              		.loc 1 3 0
  29              		.cfi_startproc
  30              		@ args = 0, pretend = 0, frame = 8
  31              		@ frame_needed = 0, uses_anonymous_args = 0
  32 0000 00B5     		push	{lr}
  33              	.LCFI0:
  34              		.cfi_def_cfa_offset 4
  35              		.cfi_offset 14, -4
  36 0002 83B0     		sub	sp, sp, #12
  37              	.LCFI1:
  38              		.cfi_def_cfa_offset 16
   4:Src/stm32f4xx_it.c **** 	volatile u32_t temp_reg ; 
   5:Src/stm32f4xx_it.c **** 	
   6:Src/stm32f4xx_it.c **** 	GPIO_TongglePin(mGPIOD , (mGPIO_PIN(12)|mGPIO_PIN(13)|mGPIO_PIN(14) | mGPIO_PIN(15)) );
  39              		.loc 1 6 0
  40 0004 4FF47041 		mov	r1, #61440
  41 0008 1948     		ldr	r0, .L8
  42 000a FFF7FEFF 		bl	GPIO_TongglePin
  43              	.LVL0:
   7:Src/stm32f4xx_it.c **** 
   8:Src/stm32f4xx_it.c **** 	// che do tan so CC1OF
   9:Src/stm32f4xx_it.c **** 	temp_reg = read_reg((mTIM_SR(mTIM2)) , (1U << 9));
  44              		.loc 1 9 0
  45 000e 194B     		ldr	r3, .L8+4
  46 0010 1B68     		ldr	r3, [r3]
  47 0012 03F40073 		and	r3, r3, #512
  48 0016 0193     		str	r3, [sp, #4]
  10:Src/stm32f4xx_it.c **** 
ARM GAS  E:\msys32\tmp\ccRAKIuE.s 			page 2


  11:Src/stm32f4xx_it.c **** 	if(temp_reg == (1u << 9)){
  49              		.loc 1 11 0
  50 0018 019B     		ldr	r3, [sp, #4]
  51 001a B3F5007F 		cmp	r3, #512
  52 001e 0AD0     		beq	.L7
  12:Src/stm32f4xx_it.c **** 		t2 = read_reg(mTIM_CCR1(mTIM2),~0u );
  13:Src/stm32f4xx_it.c **** 		if(t2 < t1 ){
  14:Src/stm32f4xx_it.c **** 			t = (t2 - t1 ) + 0xFFFFFFFF ;
  15:Src/stm32f4xx_it.c **** 		}
  16:Src/stm32f4xx_it.c **** 		else {
  17:Src/stm32f4xx_it.c **** 			t = t2 - t1;
  18:Src/stm32f4xx_it.c **** 		}
  19:Src/stm32f4xx_it.c **** 		temp_reg = read_reg(mTIM_SR(mTIM2) , ~(1u<< 9));
  20:Src/stm32f4xx_it.c **** 		write_reg(mTIM_SR(mTIM2) , temp_reg);
  21:Src/stm32f4xx_it.c **** 		t1 = t2  = 0 ;
  22:Src/stm32f4xx_it.c **** 
  23:Src/stm32f4xx_it.c **** 	}
  24:Src/stm32f4xx_it.c **** 	else {
  25:Src/stm32f4xx_it.c **** 		t1  = read_reg(mTIM_CCR1(mTIM2) , ~0u);
  53              		.loc 1 25 0
  54 0020 154B     		ldr	r3, .L8+8
  55 0022 1A68     		ldr	r2, [r3]
  56 0024 154B     		ldr	r3, .L8+12
  57 0026 1A60     		str	r2, [r3]
  58              	.L5:
  26:Src/stm32f4xx_it.c **** 	}
  27:Src/stm32f4xx_it.c ****     write_reg(mNVIC_ICPR , (1 << 28) );
  59              		.loc 1 27 0
  60 0028 154B     		ldr	r3, .L8+16
  61 002a 4FF08052 		mov	r2, #268435456
  62 002e 1A60     		str	r2, [r3]
  28:Src/stm32f4xx_it.c **** 	
  29:Src/stm32f4xx_it.c **** }
  63              		.loc 1 29 0
  64 0030 03B0     		add	sp, sp, #12
  65              	.LCFI2:
  66              		.cfi_remember_state
  67              		.cfi_def_cfa_offset 4
  68              		@ sp needed
  69 0032 5DF804FB 		ldr	pc, [sp], #4
  70              	.L7:
  71              	.LCFI3:
  72              		.cfi_restore_state
  12:Src/stm32f4xx_it.c **** 		if(t2 < t1 ){
  73              		.loc 1 12 0
  74 0036 104B     		ldr	r3, .L8+8
  75 0038 1B68     		ldr	r3, [r3]
  76 003a 124A     		ldr	r2, .L8+20
  77 003c 1360     		str	r3, [r2]
  13:Src/stm32f4xx_it.c **** 			t = (t2 - t1 ) + 0xFFFFFFFF ;
  78              		.loc 1 13 0
  79 003e 0F4A     		ldr	r2, .L8+12
  80 0040 1268     		ldr	r2, [r2]
  81 0042 9342     		cmp	r3, r2
  82 0044 10D2     		bcs	.L3
  14:Src/stm32f4xx_it.c **** 		}
  83              		.loc 1 14 0
ARM GAS  E:\msys32\tmp\ccRAKIuE.s 			page 3


  84 0046 9B1A     		subs	r3, r3, r2
  85 0048 013B     		subs	r3, r3, #1
  86 004a 0F4A     		ldr	r2, .L8+24
  87 004c 1360     		str	r3, [r2]
  88              	.L4:
  19:Src/stm32f4xx_it.c **** 		write_reg(mTIM_SR(mTIM2) , temp_reg);
  89              		.loc 1 19 0
  90 004e 094A     		ldr	r2, .L8+4
  91 0050 1368     		ldr	r3, [r2]
  92 0052 23F40073 		bic	r3, r3, #512
  93 0056 0193     		str	r3, [sp, #4]
  20:Src/stm32f4xx_it.c **** 		t1 = t2  = 0 ;
  94              		.loc 1 20 0
  95 0058 019B     		ldr	r3, [sp, #4]
  96 005a 1360     		str	r3, [r2]
  21:Src/stm32f4xx_it.c **** 
  97              		.loc 1 21 0
  98 005c 0023     		movs	r3, #0
  99 005e 094A     		ldr	r2, .L8+20
 100 0060 1360     		str	r3, [r2]
 101 0062 064A     		ldr	r2, .L8+12
 102 0064 1360     		str	r3, [r2]
 103 0066 DFE7     		b	.L5
 104              	.L3:
  17:Src/stm32f4xx_it.c **** 		}
 105              		.loc 1 17 0
 106 0068 9B1A     		subs	r3, r3, r2
 107 006a 074A     		ldr	r2, .L8+24
 108 006c 1360     		str	r3, [r2]
 109 006e EEE7     		b	.L4
 110              	.L9:
 111              		.align	2
 112              	.L8:
 113 0070 000C0240 		.word	1073875968
 114 0074 10000040 		.word	1073741840
 115 0078 34000040 		.word	1073741876
 116 007c 00000000 		.word	t1
 117 0080 80E200E0 		.word	-536812928
 118 0084 00000000 		.word	t2
 119 0088 00000000 		.word	t
 120              		.cfi_endproc
 121              	.LFE0:
 123              		.section	.text.NMI_Handler,"ax",%progbits
 124              		.align	1
 125              		.global	NMI_Handler
 126              		.syntax unified
 127              		.thumb
 128              		.thumb_func
 129              		.fpu fpv4-sp-d16
 131              	NMI_Handler:
 132              	.LFB1:
  30:Src/stm32f4xx_it.c **** 
  31:Src/stm32f4xx_it.c **** 
  32:Src/stm32f4xx_it.c **** void NMI_Handler(void)
  33:Src/stm32f4xx_it.c **** {
 133              		.loc 1 33 0
 134              		.cfi_startproc
ARM GAS  E:\msys32\tmp\ccRAKIuE.s 			page 4


 135              		@ args = 0, pretend = 0, frame = 0
 136              		@ frame_needed = 0, uses_anonymous_args = 0
 137              		@ link register save eliminated.
  34:Src/stm32f4xx_it.c **** }
 138              		.loc 1 34 0
 139 0000 7047     		bx	lr
 140              		.cfi_endproc
 141              	.LFE1:
 143              		.section	.text.HardFault_Handler,"ax",%progbits
 144              		.align	1
 145              		.global	HardFault_Handler
 146              		.syntax unified
 147              		.thumb
 148              		.thumb_func
 149              		.fpu fpv4-sp-d16
 151              	HardFault_Handler:
 152              	.LFB2:
  35:Src/stm32f4xx_it.c **** 
  36:Src/stm32f4xx_it.c **** void HardFault_Handler(void)
  37:Src/stm32f4xx_it.c **** {
 153              		.loc 1 37 0
 154              		.cfi_startproc
 155              		@ Volatile: function does not return.
 156              		@ args = 0, pretend = 0, frame = 0
 157              		@ frame_needed = 0, uses_anonymous_args = 0
 158              		@ link register save eliminated.
 159              	.L12:
 160 0000 FEE7     		b	.L12
 161              		.cfi_endproc
 162              	.LFE2:
 164              		.section	.text.MemManage_Handler,"ax",%progbits
 165              		.align	1
 166              		.global	MemManage_Handler
 167              		.syntax unified
 168              		.thumb
 169              		.thumb_func
 170              		.fpu fpv4-sp-d16
 172              	MemManage_Handler:
 173              	.LFB3:
  38:Src/stm32f4xx_it.c ****   while (1)
  39:Src/stm32f4xx_it.c ****   {
  40:Src/stm32f4xx_it.c ****   }
  41:Src/stm32f4xx_it.c **** }
  42:Src/stm32f4xx_it.c **** void MemManage_Handler(void)
  43:Src/stm32f4xx_it.c **** {
 174              		.loc 1 43 0
 175              		.cfi_startproc
 176              		@ Volatile: function does not return.
 177              		@ args = 0, pretend = 0, frame = 0
 178              		@ frame_needed = 0, uses_anonymous_args = 0
 179              		@ link register save eliminated.
 180              	.L14:
 181 0000 FEE7     		b	.L14
 182              		.cfi_endproc
 183              	.LFE3:
 185              		.section	.text.BusFault_Handler,"ax",%progbits
 186              		.align	1
ARM GAS  E:\msys32\tmp\ccRAKIuE.s 			page 5


 187              		.global	BusFault_Handler
 188              		.syntax unified
 189              		.thumb
 190              		.thumb_func
 191              		.fpu fpv4-sp-d16
 193              	BusFault_Handler:
 194              	.LFB4:
  44:Src/stm32f4xx_it.c ****   while (1)
  45:Src/stm32f4xx_it.c ****   {
  46:Src/stm32f4xx_it.c ****   }
  47:Src/stm32f4xx_it.c **** }
  48:Src/stm32f4xx_it.c **** 
  49:Src/stm32f4xx_it.c **** void BusFault_Handler(void)
  50:Src/stm32f4xx_it.c **** {
 195              		.loc 1 50 0
 196              		.cfi_startproc
 197              		@ Volatile: function does not return.
 198              		@ args = 0, pretend = 0, frame = 0
 199              		@ frame_needed = 0, uses_anonymous_args = 0
 200              		@ link register save eliminated.
 201              	.L16:
 202 0000 FEE7     		b	.L16
 203              		.cfi_endproc
 204              	.LFE4:
 206              		.section	.text.UsageFault_Handler,"ax",%progbits
 207              		.align	1
 208              		.global	UsageFault_Handler
 209              		.syntax unified
 210              		.thumb
 211              		.thumb_func
 212              		.fpu fpv4-sp-d16
 214              	UsageFault_Handler:
 215              	.LFB5:
  51:Src/stm32f4xx_it.c ****   while (1)
  52:Src/stm32f4xx_it.c ****   {
  53:Src/stm32f4xx_it.c ****   }
  54:Src/stm32f4xx_it.c **** 
  55:Src/stm32f4xx_it.c **** }
  56:Src/stm32f4xx_it.c **** 
  57:Src/stm32f4xx_it.c **** void UsageFault_Handler(void)
  58:Src/stm32f4xx_it.c **** {
 216              		.loc 1 58 0
 217              		.cfi_startproc
 218              		@ Volatile: function does not return.
 219              		@ args = 0, pretend = 0, frame = 0
 220              		@ frame_needed = 0, uses_anonymous_args = 0
 221              		@ link register save eliminated.
 222              	.L18:
 223 0000 FEE7     		b	.L18
 224              		.cfi_endproc
 225              	.LFE5:
 227              		.section	.text.SVC_Handler,"ax",%progbits
 228              		.align	1
 229              		.global	SVC_Handler
 230              		.syntax unified
 231              		.thumb
 232              		.thumb_func
ARM GAS  E:\msys32\tmp\ccRAKIuE.s 			page 6


 233              		.fpu fpv4-sp-d16
 235              	SVC_Handler:
 236              	.LFB6:
  59:Src/stm32f4xx_it.c ****   while (1)
  60:Src/stm32f4xx_it.c ****   {
  61:Src/stm32f4xx_it.c ****   }
  62:Src/stm32f4xx_it.c **** }
  63:Src/stm32f4xx_it.c **** void SVC_Handler(void)
  64:Src/stm32f4xx_it.c **** {
 237              		.loc 1 64 0
 238              		.cfi_startproc
 239              		@ args = 0, pretend = 0, frame = 0
 240              		@ frame_needed = 0, uses_anonymous_args = 0
 241              		@ link register save eliminated.
  65:Src/stm32f4xx_it.c **** }
 242              		.loc 1 65 0
 243 0000 7047     		bx	lr
 244              		.cfi_endproc
 245              	.LFE6:
 247              		.section	.text.DebugMon_Handler,"ax",%progbits
 248              		.align	1
 249              		.global	DebugMon_Handler
 250              		.syntax unified
 251              		.thumb
 252              		.thumb_func
 253              		.fpu fpv4-sp-d16
 255              	DebugMon_Handler:
 256              	.LFB7:
  66:Src/stm32f4xx_it.c **** 
  67:Src/stm32f4xx_it.c **** void DebugMon_Handler(void)
  68:Src/stm32f4xx_it.c **** {
 257              		.loc 1 68 0
 258              		.cfi_startproc
 259              		@ args = 0, pretend = 0, frame = 0
 260              		@ frame_needed = 0, uses_anonymous_args = 0
 261              		@ link register save eliminated.
  69:Src/stm32f4xx_it.c **** }
 262              		.loc 1 69 0
 263 0000 7047     		bx	lr
 264              		.cfi_endproc
 265              	.LFE7:
 267              		.section	.text.PendSV_Handler,"ax",%progbits
 268              		.align	1
 269              		.global	PendSV_Handler
 270              		.syntax unified
 271              		.thumb
 272              		.thumb_func
 273              		.fpu fpv4-sp-d16
 275              	PendSV_Handler:
 276              	.LFB8:
  70:Src/stm32f4xx_it.c **** 
  71:Src/stm32f4xx_it.c **** void PendSV_Handler(void)
  72:Src/stm32f4xx_it.c **** {
 277              		.loc 1 72 0
 278              		.cfi_startproc
 279              		@ args = 0, pretend = 0, frame = 0
 280              		@ frame_needed = 0, uses_anonymous_args = 0
ARM GAS  E:\msys32\tmp\ccRAKIuE.s 			page 7


 281              		@ link register save eliminated.
  73:Src/stm32f4xx_it.c **** }
 282              		.loc 1 73 0
 283 0000 7047     		bx	lr
 284              		.cfi_endproc
 285              	.LFE8:
 287              		.section	.text.SysTick_Handler,"ax",%progbits
 288              		.align	1
 289              		.global	SysTick_Handler
 290              		.syntax unified
 291              		.thumb
 292              		.thumb_func
 293              		.fpu fpv4-sp-d16
 295              	SysTick_Handler:
 296              	.LFB9:
  74:Src/stm32f4xx_it.c **** 
  75:Src/stm32f4xx_it.c **** void SysTick_Handler(void)
  76:Src/stm32f4xx_it.c **** {
 297              		.loc 1 76 0
 298              		.cfi_startproc
 299              		@ args = 0, pretend = 0, frame = 0
 300              		@ frame_needed = 0, uses_anonymous_args = 0
 301              		@ link register save eliminated.
  77:Src/stm32f4xx_it.c **** }
 302              		.loc 1 77 0
 303 0000 7047     		bx	lr
 304              		.cfi_endproc
 305              	.LFE9:
 307              		.section	.text.mNVIC_SetPriority,"ax",%progbits
 308              		.align	1
 309              		.global	mNVIC_SetPriority
 310              		.syntax unified
 311              		.thumb
 312              		.thumb_func
 313              		.fpu fpv4-sp-d16
 315              	mNVIC_SetPriority:
 316              	.LFB10:
  78:Src/stm32f4xx_it.c **** void mNVIC_SetPriority(IRQn_Type ipr , u32_t pri){
 317              		.loc 1 78 0
 318              		.cfi_startproc
 319              		@ args = 0, pretend = 0, frame = 0
 320              		@ frame_needed = 0, uses_anonymous_args = 0
 321              		@ link register save eliminated.
 322              	.LVL1:
  79:Src/stm32f4xx_it.c **** 	// chia 4 .. stm32f4 chi dung 4 bit priority	 
  80:Src/stm32f4xx_it.c **** 	u32_t addr_ipr = (mNVIC_IPR(( (u32_t)ipr >> 2u ))) ;
 323              		.loc 1 80 0
 324 0000 8008     		lsrs	r0, r0, #2
 325              	.LVL2:
 326 0002 00F16050 		add	r0, r0, #939524096
 327 0006 00F56450 		add	r0, r0, #14592
 328 000a 8000     		lsls	r0, r0, #2
 329              	.LVL3:
  81:Src/stm32f4xx_it.c **** 	u32_t temp_reg = read_reg(addr_ipr, ~0u);
 330              		.loc 1 81 0
 331 000c 0368     		ldr	r3, [r0]
 332              	.LVL4:
ARM GAS  E:\msys32\tmp\ccRAKIuE.s 			page 8


  82:Src/stm32f4xx_it.c **** 	temp_reg |=  ( ((u32_t)pri  & 0xFFu ) << 4u ) ;
 333              		.loc 1 82 0
 334 000e 0901     		lsls	r1, r1, #4
 335              	.LVL5:
 336 0010 01F47F61 		and	r1, r1, #4080
 337 0014 1943     		orrs	r1, r1, r3
 338              	.LVL6:
  83:Src/stm32f4xx_it.c **** 	write_reg(addr_ipr, temp_reg);
 339              		.loc 1 83 0
 340 0016 0160     		str	r1, [r0]
  84:Src/stm32f4xx_it.c **** 	 
  85:Src/stm32f4xx_it.c **** }
 341              		.loc 1 85 0
 342 0018 7047     		bx	lr
 343              		.cfi_endproc
 344              	.LFE10:
 346              		.section	.text.mNVIC_EnableIRQ,"ax",%progbits
 347              		.align	1
 348              		.global	mNVIC_EnableIRQ
 349              		.syntax unified
 350              		.thumb
 351              		.thumb_func
 352              		.fpu fpv4-sp-d16
 354              	mNVIC_EnableIRQ:
 355              	.LFB11:
  86:Src/stm32f4xx_it.c **** void mNVIC_EnableIRQ(IRQn_Type irq){
 356              		.loc 1 86 0
 357              		.cfi_startproc
 358              		@ args = 0, pretend = 0, frame = 0
 359              		@ frame_needed = 0, uses_anonymous_args = 0
 360              		@ link register save eliminated.
 361              	.LVL7:
  87:Src/stm32f4xx_it.c **** 	// iser /32 ,%32
  88:Src/stm32f4xx_it.c **** 	u32_t addr_irq = mNVIC_ISER( ((u32_t)irq >> 5u) )  ;
 362              		.loc 1 88 0
 363 0000 4309     		lsrs	r3, r0, #5
 364 0002 03F13823 		add	r3, r3, #939538432
 365 0006 4033     		adds	r3, r3, #64
 366 0008 9B00     		lsls	r3, r3, #2
 367              	.LVL8:
  89:Src/stm32f4xx_it.c **** 	
  90:Src/stm32f4xx_it.c **** 	u32_t temp_reg = read_reg(addr_irq , ~0u);
 368              		.loc 1 90 0
 369 000a 1968     		ldr	r1, [r3]
 370              	.LVL9:
  91:Src/stm32f4xx_it.c **** 	temp_reg |=  (u32_t)(1UL << ((u32_t)irq & 0x1Fu )) ;
 371              		.loc 1 91 0
 372 000c 00F01F02 		and	r2, r0, #31
 373 0010 0120     		movs	r0, #1
 374              	.LVL10:
 375 0012 9040     		lsls	r0, r0, r2
 376 0014 0843     		orrs	r0, r0, r1
 377              	.LVL11:
  92:Src/stm32f4xx_it.c **** 	write_reg(addr_irq, temp_reg);
 378              		.loc 1 92 0
 379 0016 1860     		str	r0, [r3]
  93:Src/stm32f4xx_it.c **** 	
ARM GAS  E:\msys32\tmp\ccRAKIuE.s 			page 9


  94:Src/stm32f4xx_it.c **** }
 380              		.loc 1 94 0
 381 0018 7047     		bx	lr
 382              		.cfi_endproc
 383              	.LFE11:
 385              		.comm	t,4,4
 386              		.comm	t2,4,4
 387              		.comm	t1,4,4
 388              		.text
 389              	.Letext0:
 390              		.file 2 "E:/Users/VuHaiLong/Documents/stm/mylib/mInc/mtype.h"
 391              		.file 3 "E:/Users/VuHaiLong/Documents/stm/mylib/mInc/const.h"
 392              		.file 4 "Inc/stm32f4xx_it.h"
 393              		.file 5 "E:/Users/VuHaiLong/Documents/stm/mylib/mInc/gpio.h"
ARM GAS  E:\msys32\tmp\ccRAKIuE.s 			page 10

